

Microchip Technology PIC LITE Macro Assembler V1.32 build 58300 
                                                                                               Sun Sep 28 14:53:09 2014

Microchip Technology Omniscient Code Generator (Lite mode) build 58300
     1                           	processor	16F1939
     2                           	opt	pw 120
     3                           	opt	lm
     4                           	psect	nvBANK0,global,class=BANK0,space=1,delta=1
     5                           	psect	cinit,global,class=CODE,merge=1,delta=2
     6                           	psect	bssCOMMON,global,class=COMMON,space=1,delta=1
     7                           	psect	bssBANK0,global,class=BANK0,space=1,delta=1
     8                           	psect	bssBANK1,global,class=BANK1,space=1,delta=1
     9                           	psect	bssBANK2,global,class=BANK2,space=1,delta=1
    10                           	psect	bssBANK3,global,class=BANK3,space=1,delta=1
    11                           	psect	clrtext,global,class=CODE,delta=2
    12                           	psect	cstackCOMMON,global,class=COMMON,space=1,delta=1
    13                           	psect	cstackBANK0,global,class=BANK0,space=1,delta=1
    14                           	psect	maintext,global,class=CODE,merge=1,split=1,delta=2
    15                           	psect	swtext1,local,class=CONST,delta=2
    16                           	psect	text1,local,class=CODE,merge=1,delta=2
    17                           	psect	text2,local,class=CODE,merge=1,delta=2
    18                           	psect	text3,local,class=CODE,merge=1,delta=2
    19                           	psect	text4,local,class=CODE,merge=1,delta=2
    20                           	psect	text5,local,class=CODE,merge=1,delta=2
    21                           	psect	intentry,global,class=CODE,delta=2
    22                           	psect	text7,local,class=CODE,merge=1,delta=2
    23                           	psect	text8,local,class=CODE,merge=1,delta=2
    24                           	dabs	1,0x620,48
    25                           	dabs	1,0x5C6,42
    26                           	dabs	1,0x2396,0,_putdata
    27                           	dabs	1,0x7E,2
    28  0000                     	;# 
    29  0001                     	;# 
    30  0002                     	;# 
    31  0003                     	;# 
    32  0004                     	;# 
    33  0005                     	;# 
    34  0006                     	;# 
    35  0007                     	;# 
    36  0008                     	;# 
    37  0009                     	;# 
    38  000A                     	;# 
    39  000B                     	;# 
    40  000C                     	;# 
    41  000D                     	;# 
    42  000E                     	;# 
    43  000F                     	;# 
    44  0010                     	;# 
    45  0011                     	;# 
    46  0012                     	;# 
    47  0013                     	;# 
    48  0015                     	;# 
    49  0016                     	;# 
    50  0016                     	;# 
    51  0017                     	;# 
    52  0018                     	;# 
    53  0019                     	;# 
    54  001A                     	;# 
    55  001B                     	;# 
    56  001C                     	;# 
    57  001E                     	;# 
    58  001F                     	;# 
    59  008C                     	;# 
    60  008D                     	;# 
    61  008E                     	;# 
    62  008F                     	;# 
    63  0090                     	;# 
    64  0091                     	;# 
    65  0092                     	;# 
    66  0093                     	;# 
    67  0095                     	;# 
    68  0096                     	;# 
    69  0097                     	;# 
    70  0098                     	;# 
    71  0099                     	;# 
    72  009A                     	;# 
    73  009B                     	;# 
    74  009B                     	;# 
    75  009C                     	;# 
    76  009D                     	;# 
    77  009E                     	;# 
    78  010C                     	;# 
    79  010D                     	;# 
    80  010E                     	;# 
    81  010F                     	;# 
    82  0110                     	;# 
    83  0111                     	;# 
    84  0112                     	;# 
    85  0113                     	;# 
    86  0114                     	;# 
    87  0115                     	;# 
    88  0116                     	;# 
    89  0117                     	;# 
    90  0118                     	;# 
    91  0119                     	;# 
    92  011A                     	;# 
    93  011B                     	;# 
    94  011D                     	;# 
    95  018C                     	;# 
    96  018D                     	;# 
    97  018F                     	;# 
    98  0190                     	;# 
    99  0191                     	;# 
   100  0191                     	;# 
   101  0192                     	;# 
   102  0193                     	;# 
   103  0193                     	;# 
   104  0193                     	;# 
   105  0194                     	;# 
   106  0195                     	;# 
   107  0196                     	;# 
   108  0199                     	;# 
   109  019A                     	;# 
   110  019B                     	;# 
   111  019B                     	;# 
   112  019B                     	;# 
   113  019B                     	;# 
   114  019C                     	;# 
   115  019C                     	;# 
   116  019D                     	;# 
   117  019E                     	;# 
   118  019F                     	;# 
   119  020D                     	;# 
   120  0210                     	;# 
   121  0211                     	;# 
   122  0212                     	;# 
   123  0213                     	;# 
   124  0214                     	;# 
   125  0215                     	;# 
   126  0215                     	;# 
   127  0216                     	;# 
   128  0217                     	;# 
   129  0291                     	;# 
   130  0291                     	;# 
   131  0292                     	;# 
   132  0293                     	;# 
   133  0294                     	;# 
   134  0295                     	;# 
   135  0295                     	;# 
   136  0296                     	;# 
   137  0298                     	;# 
   138  0298                     	;# 
   139  0299                     	;# 
   140  029A                     	;# 
   141  029B                     	;# 
   142  029C                     	;# 
   143  029C                     	;# 
   144  029D                     	;# 
   145  029E                     	;# 
   146  029F                     	;# 
   147  0311                     	;# 
   148  0311                     	;# 
   149  0312                     	;# 
   150  0313                     	;# 
   151  0314                     	;# 
   152  0315                     	;# 
   153  0315                     	;# 
   154  0316                     	;# 
   155  0318                     	;# 
   156  0318                     	;# 
   157  0319                     	;# 
   158  031A                     	;# 
   159  031C                     	;# 
   160  031C                     	;# 
   161  031D                     	;# 
   162  031E                     	;# 
   163  0394                     	;# 
   164  0395                     	;# 
   165  0396                     	;# 
   166  0415                     	;# 
   167  0416                     	;# 
   168  0417                     	;# 
   169  041C                     	;# 
   170  041D                     	;# 
   171  041E                     	;# 
   172  0791                     	;# 
   173  0792                     	;# 
   174  0793                     	;# 
   175  0794                     	;# 
   176  0795                     	;# 
   177  0798                     	;# 
   178  0799                     	;# 
   179  079A                     	;# 
   180  07A0                     	;# 
   181  07A1                     	;# 
   182  07A2                     	;# 
   183  07A3                     	;# 
   184  07A4                     	;# 
   185  07A5                     	;# 
   186  07A6                     	;# 
   187  07A7                     	;# 
   188  07A8                     	;# 
   189  07A9                     	;# 
   190  07AA                     	;# 
   191  07AB                     	;# 
   192  0FE4                     	;# 
   193  0FE5                     	;# 
   194  0FE6                     	;# 
   195  0FE7                     	;# 
   196  0FE8                     	;# 
   197  0FE9                     	;# 
   198  0FEA                     	;# 
   199  0FEB                     	;# 
   200  0FED                     	;# 
   201  0FEE                     	;# 
   202  0FEF                     	;# 
   203  0000                     	;# 
   204  0001                     	;# 
   205  0002                     	;# 
   206  0003                     	;# 
   207  0004                     	;# 
   208  0005                     	;# 
   209  0006                     	;# 
   210  0007                     	;# 
   211  0008                     	;# 
   212  0009                     	;# 
   213  000A                     	;# 
   214  000B                     	;# 
   215  000C                     	;# 
   216  000D                     	;# 
   217  000E                     	;# 
   218  000F                     	;# 
   219  0010                     	;# 
   220  0011                     	;# 
   221  0012                     	;# 
   222  0013                     	;# 
   223  0015                     	;# 
   224  0016                     	;# 
   225  0016                     	;# 
   226  0017                     	;# 
   227  0018                     	;# 
   228  0019                     	;# 
   229  001A                     	;# 
   230  001B                     	;# 
   231  001C                     	;# 
   232  001E                     	;# 
   233  001F                     	;# 
   234  008C                     	;# 
   235  008D                     	;# 
   236  008E                     	;# 
   237  008F                     	;# 
   238  0090                     	;# 
   239  0091                     	;# 
   240  0092                     	;# 
   241  0093                     	;# 
   242  0095                     	;# 
   243  0096                     	;# 
   244  0097                     	;# 
   245  0098                     	;# 
   246  0099                     	;# 
   247  009A                     	;# 
   248  009B                     	;# 
   249  009B                     	;# 
   250  009C                     	;# 
   251  009D                     	;# 
   252  009E                     	;# 
   253  010C                     	;# 
   254  010D                     	;# 
   255  010E                     	;# 
   256  010F                     	;# 
   257  0110                     	;# 
   258  0111                     	;# 
   259  0112                     	;# 
   260  0113                     	;# 
   261  0114                     	;# 
   262  0115                     	;# 
   263  0116                     	;# 
   264  0117                     	;# 
   265  0118                     	;# 
   266  0119                     	;# 
   267  011A                     	;# 
   268  011B                     	;# 
   269  011D                     	;# 
   270  018C                     	;# 
   271  018D                     	;# 
   272  018F                     	;# 
   273  0190                     	;# 
   274  0191                     	;# 
   275  0191                     	;# 
   276  0192                     	;# 
   277  0193                     	;# 
   278  0193                     	;# 
   279  0193                     	;# 
   280  0194                     	;# 
   281  0195                     	;# 
   282  0196                     	;# 
   283  0199                     	;# 
   284  019A                     	;# 
   285  019B                     	;# 
   286  019B                     	;# 
   287  019B                     	;# 
   288  019B                     	;# 
   289  019C                     	;# 
   290  019C                     	;# 
   291  019D                     	;# 
   292  019E                     	;# 
   293  019F                     	;# 
   294  020D                     	;# 
   295  0210                     	;# 
   296  0211                     	;# 
   297  0212                     	;# 
   298  0213                     	;# 
   299  0214                     	;# 
   300  0215                     	;# 
   301  0215                     	;# 
   302  0216                     	;# 
   303  0217                     	;# 
   304  0291                     	;# 
   305  0291                     	;# 
   306  0292                     	;# 
   307  0293                     	;# 
   308  0294                     	;# 
   309  0295                     	;# 
   310  0295                     	;# 
   311  0296                     	;# 
   312  0298                     	;# 
   313  0298                     	;# 
   314  0299                     	;# 
   315  029A                     	;# 
   316  029B                     	;# 
   317  029C                     	;# 
   318  029C                     	;# 
   319  029D                     	;# 
   320  029E                     	;# 
   321  029F                     	;# 
   322  0311                     	;# 
   323  0311                     	;# 
   324  0312                     	;# 
   325  0313                     	;# 
   326  0314                     	;# 
   327  0315                     	;# 
   328  0315                     	;# 
   329  0316                     	;# 
   330  0318                     	;# 
   331  0318                     	;# 
   332  0319                     	;# 
   333  031A                     	;# 
   334  031C                     	;# 
   335  031C                     	;# 
   336  031D                     	;# 
   337  031E                     	;# 
   338  0394                     	;# 
   339  0395                     	;# 
   340  0396                     	;# 
   341  0415                     	;# 
   342  0416                     	;# 
   343  0417                     	;# 
   344  041C                     	;# 
   345  041D                     	;# 
   346  041E                     	;# 
   347  0791                     	;# 
   348  0792                     	;# 
   349  0793                     	;# 
   350  0794                     	;# 
   351  0795                     	;# 
   352  0798                     	;# 
   353  0799                     	;# 
   354  079A                     	;# 
   355  07A0                     	;# 
   356  07A1                     	;# 
   357  07A2                     	;# 
   358  07A3                     	;# 
   359  07A4                     	;# 
   360  07A5                     	;# 
   361  07A6                     	;# 
   362  07A7                     	;# 
   363  07A8                     	;# 
   364  07A9                     	;# 
   365  07AA                     	;# 
   366  07AB                     	;# 
   367  0FE4                     	;# 
   368  0FE5                     	;# 
   369  0FE6                     	;# 
   370  0FE7                     	;# 
   371  0FE8                     	;# 
   372  0FE9                     	;# 
   373  0FEA                     	;# 
   374  0FEB                     	;# 
   375  0FED                     	;# 
   376  0FEE                     	;# 
   377  0FEF                     	;# 
   378  0000                     	;# 
   379  0001                     	;# 
   380  0002                     	;# 
   381  0003                     	;# 
   382  0004                     	;# 
   383  0005                     	;# 
   384  0006                     	;# 
   385  0007                     	;# 
   386  0008                     	;# 
   387  0009                     	;# 
   388  000A                     	;# 
   389  000B                     	;# 
   390  000C                     	;# 
   391  000D                     	;# 
   392  000E                     	;# 
   393  000F                     	;# 
   394  0010                     	;# 
   395  0011                     	;# 
   396  0012                     	;# 
   397  0013                     	;# 
   398  0015                     	;# 
   399  0016                     	;# 
   400  0016                     	;# 
   401  0017                     	;# 
   402  0018                     	;# 
   403  0019                     	;# 
   404  001A                     	;# 
   405  001B                     	;# 
   406  001C                     	;# 
   407  001E                     	;# 
   408  001F                     	;# 
   409  008C                     	;# 
   410  008D                     	;# 
   411  008E                     	;# 
   412  008F                     	;# 
   413  0090                     	;# 
   414  0091                     	;# 
   415  0092                     	;# 
   416  0093                     	;# 
   417  0095                     	;# 
   418  0096                     	;# 
   419  0097                     	;# 
   420  0098                     	;# 
   421  0099                     	;# 
   422  009A                     	;# 
   423  009B                     	;# 
   424  009B                     	;# 
   425  009C                     	;# 
   426  009D                     	;# 
   427  009E                     	;# 
   428  010C                     	;# 
   429  010D                     	;# 
   430  010E                     	;# 
   431  010F                     	;# 
   432  0110                     	;# 
   433  0111                     	;# 
   434  0112                     	;# 
   435  0113                     	;# 
   436  0114                     	;# 
   437  0115                     	;# 
   438  0116                     	;# 
   439  0117                     	;# 
   440  0118                     	;# 
   441  0119                     	;# 
   442  011A                     	;# 
   443  011B                     	;# 
   444  011D                     	;# 
   445  018C                     	;# 
   446  018D                     	;# 
   447  018F                     	;# 
   448  0190                     	;# 
   449  0191                     	;# 
   450  0191                     	;# 
   451  0192                     	;# 
   452  0193                     	;# 
   453  0193                     	;# 
   454  0193                     	;# 
   455  0194                     	;# 
   456  0195                     	;# 
   457  0196                     	;# 
   458  0199                     	;# 
   459  019A                     	;# 
   460  019B                     	;# 
   461  019B                     	;# 
   462  019B                     	;# 
   463  019B                     	;# 
   464  019C                     	;# 
   465  019C                     	;# 
   466  019D                     	;# 
   467  019E                     	;# 
   468  019F                     	;# 
   469  020D                     	;# 
   470  0210                     	;# 
   471  0211                     	;# 
   472  0212                     	;# 
   473  0213                     	;# 
   474  0214                     	;# 
   475  0215                     	;# 
   476  0215                     	;# 
   477  0216                     	;# 
   478  0217                     	;# 
   479  0291                     	;# 
   480  0291                     	;# 
   481  0292                     	;# 
   482  0293                     	;# 
   483  0294                     	;# 
   484  0295                     	;# 
   485  0295                     	;# 
   486  0296                     	;# 
   487  0298                     	;# 
   488  0298                     	;# 
   489  0299                     	;# 
   490  029A                     	;# 
   491  029B                     	;# 
   492  029C                     	;# 
   493  029C                     	;# 
   494  029D                     	;# 
   495  029E                     	;# 
   496  029F                     	;# 
   497  0311                     	;# 
   498  0311                     	;# 
   499  0312                     	;# 
   500  0313                     	;# 
   501  0314                     	;# 
   502  0315                     	;# 
   503  0315                     	;# 
   504  0316                     	;# 
   505  0318                     	;# 
   506  0318                     	;# 
   507  0319                     	;# 
   508  031A                     	;# 
   509  031C                     	;# 
   510  031C                     	;# 
   511  031D                     	;# 
   512  031E                     	;# 
   513  0394                     	;# 
   514  0395                     	;# 
   515  0396                     	;# 
   516  0415                     	;# 
   517  0416                     	;# 
   518  0417                     	;# 
   519  041C                     	;# 
   520  041D                     	;# 
   521  041E                     	;# 
   522  0791                     	;# 
   523  0792                     	;# 
   524  0793                     	;# 
   525  0794                     	;# 
   526  0795                     	;# 
   527  0798                     	;# 
   528  0799                     	;# 
   529  079A                     	;# 
   530  07A0                     	;# 
   531  07A1                     	;# 
   532  07A2                     	;# 
   533  07A3                     	;# 
   534  07A4                     	;# 
   535  07A5                     	;# 
   536  07A6                     	;# 
   537  07A7                     	;# 
   538  07A8                     	;# 
   539  07A9                     	;# 
   540  07AA                     	;# 
   541  07AB                     	;# 
   542  0FE4                     	;# 
   543  0FE5                     	;# 
   544  0FE6                     	;# 
   545  0FE7                     	;# 
   546  0FE8                     	;# 
   547  0FE9                     	;# 
   548  0FEA                     	;# 
   549  0FEB                     	;# 
   550  0FED                     	;# 
   551  0FEE                     	;# 
   552  0FEF                     	;_putdata
   553                           
   554                           	psect	nvBANK0
   555  0063                     __pnvBANK0:	
   556  0063                     _gettingSuccess:	
   557  0063                     	ds	1
   558  000C                     _PORTA	set	12
   559  000D                     _PORTB	set	13
   560  000E                     _PORTC	set	14
   561  000F                     _PORTD	set	15
   562  0010                     _PORTE	set	16
   563  0015                     _TMR0	set	21
   564  005F                     _GIE	set	95
   565  0060                     _RA0	set	96
   566  0061                     _RA1	set	97
   567  0062                     _RA2	set	98
   568  0063                     _RA3	set	99
   569  0064                     _RA4	set	100
   570  0065                     _RA5	set	101
   571  0066                     _RA6	set	102
   572  0067                     _RA7	set	103
   573  0070                     _RC0	set	112
   574  0071                     _RC1	set	113
   575  0072                     _RC2	set	114
   576  0073                     _RC3	set	115
   577  008D                     _RCIF	set	141
   578  0078                     _RD0	set	120
   579  0079                     _RD1	set	121
   580  007C                     _RD4	set	124
   581  007D                     _RD5	set	125
   582  007E                     _RD6	set	126
   583  005D                     _TMR0IE	set	93
   584  005A                     _TMR0IF	set	90
   585  0095                     _OPTION_REG	set	149
   586  0099                     _OSCCON	set	153
   587  008C                     _TRISA	set	140
   588  008D                     _TRISB	set	141
   589  008E                     _TRISC	set	142
   590  008F                     _TRISD	set	143
   591  0090                     _TRISE	set	144
   592  0476                     _TRISC6	set	1142
   593  0477                     _TRISC7	set	1143
   594  04AF                     _nWPUEN	set	1199
   595  0191                     _EEADR	set	401
   596  018C                     _ANSELA	set	396
   597  018D                     _ANSELB	set	397
   598  018F                     _ANSELD	set	399
   599  0190                     _ANSELE	set	400
   600  019F                     _BAUDCON	set	415
   601  0193                     _EEDATA	set	403
   602  0199                     _RCREG	set	409
   603  019D                     _RCSTA	set	413
   604  019B                     _SPBRG	set	411
   605  019A                     _TXREG	set	410
   606  019E                     _TXSTA	set	414
   607  0CA8                     _RD	set	3240
   608  0CF1                     _TRMT	set	3313
   609  020D                     _WPUB	set	525
   610                           
   611                           ; #config settings
   612  0000                     
   613                           	psect	cinit
   614  001C                     start_initialization:	
   615  001C                     __initialization:		;BIGRAM
   616                           
   617                           ; Clear objects allocated to BIGRAM
   618  001C  3096               	movlw	low (0+9110)
   619  001D  0084               	movwf	4
   620  001E  3023               	movlw	high (0+9110)
   621  001F  0085               	movwf	5
   622  0020  305A               	movlw	90
   623  0021  00FE               	movwf	btemp
   624  0022  3000               	movlw	0
   625  0023  00FF               	movwf	btemp+1
   626  0024  3186  2691  3180   	fcall	clear_ram0
   627                           
   628                           ; Clear objects allocated to COMMON
   629  0027  01F7               	clrf	__pbssCOMMON& (0+127)
   630  0028  01F8               	clrf	(__pbssCOMMON+1)& (0+127)
   631  0029  01F9               	clrf	(__pbssCOMMON+2)& (0+127)
   632  002A  01FA               	clrf	(__pbssCOMMON+3)& (0+127)
   633  002B  01FB               	clrf	(__pbssCOMMON+4)& (0+127)
   634                           
   635                           ; Clear objects allocated to BANK0
   636  002C  3020               	movlw	low __pbssBANK0
   637  002D  0084               	movwf	4
   638  002E  3000               	movlw	high __pbssBANK0
   639  002F  0085               	movwf	5
   640  0030  3027               	movlw	39
   641  0031  00FE               	movwf	btemp
   642  0032  3000               	movlw	0
   643  0033  00FF               	movwf	btemp+1
   644  0034  3186  2691  3180   	fcall	clear_ram0
   645                           
   646                           ; Clear objects allocated to BANK1
   647  0037  30A0               	movlw	low __pbssBANK1
   648  0038  0084               	movwf	4
   649  0039  3000               	movlw	high __pbssBANK1
   650  003A  0085               	movwf	5
   651  003B  3046               	movlw	70
   652  003C  00FE               	movwf	btemp
   653  003D  3000               	movlw	0
   654  003E  00FF               	movwf	btemp+1
   655  003F  3186  2691  3180   	fcall	clear_ram0
   656                           
   657                           ; Clear objects allocated to BANK2
   658  0042  3020               	movlw	low __pbssBANK2
   659  0043  0084               	movwf	4
   660  0044  3001               	movlw	high __pbssBANK2
   661  0045  0085               	movwf	5
   662  0046  3050               	movlw	80
   663  0047  00FE               	movwf	btemp
   664  0048  3000               	movlw	0
   665  0049  00FF               	movwf	btemp+1
   666  004A  3186  2691  3180   	fcall	clear_ram0
   667                           
   668                           ; Clear objects allocated to BANK3
   669  004D  30A0               	movlw	low __pbssBANK3
   670  004E  0084               	movwf	4
   671  004F  3001               	movlw	high __pbssBANK3
   672  0050  0085               	movwf	5
   673  0051  3030               	movlw	48
   674  0052  00FE               	movwf	btemp
   675  0053  3000               	movlw	0
   676  0054  00FF               	movwf	btemp+1
   677  0055  3186  2691         	fcall	clear_ram0
   678  0057                     end_of_initialization:	
   679                           ;End of C runtime variable initialization code
   680                           
   681  0057                     __end_of__initialization:	
   682  0057  107E               	bcf	pic14e$flags,0	;clear compiler interrupt flag
   683  0058  0020               	movlb	0
   684  0059  3185  2DA9         	ljmp	_main	;jump to C main() function
   685                           
   686                           	psect	bssCOMMON
   687  0077                     __pbssCOMMON:	
   688  0077                     _fulg:	
   689  0077                     	ds	1
   690  0078                     _getNum:	
   691  0078                     	ds	1
   692  0079                     _onetime:	
   693  0079                     	ds	1
   694  007A                     _reservingNow:	
   695  007A                     	ds	1
   696  007B                     _resetFlug:	
   697  007B                     	ds	1
   698                           
   699                           	psect	bssBANK0
   700  0020                     __pbssBANK0:	
   701  0020                     _getKeeping:	
   702  0020                     	ds	34
   703  0042                     _i:	
   704  0042                     	ds	1
   705  0043                     _j:	
   706  0043                     	ds	1
   707  0044                     _ledcount:	
   708  0044                     	ds	1
   709  0045                     _n:	
   710  0045                     	ds	1
   711  0046                     _time:	
   712  0046                     	ds	1
   713                           
   714                           	psect	bssBANK1
   715  00A0                     __pbssBANK1:	
   716  00A0                     _getdata:	
   717  00A0                     	ds	70
   718                           
   719                           	psect	bssBANK2
   720  0120                     __pbssBANK2:	
   721  0120                     _led:	
   722  0120                     	ds	48
   723  0150                     _test:	
   724  0150                     	ds	32
   725                           
   726                           	psect	bssBANK3
   727  01A0                     __pbssBANK3:	
   728  01A0                     _stoc:	
   729  01A0                     	ds	48
   730                           
   731                           	psect	clrtext
   732  0691                     clear_ram0:	
   733                           ;	Called with FSR0 containing the base address, and
   734                           ;	btemp/btemp+1 has the size to clear
   735                           
   736  0691  0064               	clrwdt	;clear the watchdog before getting into this loop
   737  0692                     clrloop0:	
   738  0692  0180               	clrf	0	;clear RAM location pointed to by FSR
   739  0693  3101               	addfsr 0,1
   740  0694  3001               	movlw	1
   741  0695  02FE               	subwf	126,f
   742  0696  3000               	movlw	0
   743  0697  3BFF               	subwfb	127,f
   744  0698  087F               	movf	127,w
   745  0699  047E               	iorwf	126,w
   746  069A  1903               	btfsc	3,2
   747  069B  3400               	retlw	0	;all done for this memory range, return
   748  069C  2E92               	goto	clrloop0	;have we reached the end yet?
   749                           
   750                           	psect	cstackCOMMON
   751  0070                     __pcstackCOMMON:	
   752  0070                     ?_setpin:	
   753  0070                     ?_change:	
   754                           ; 0 bytes @ 0x0
   755                           
   756  0070                     ?_uartget:	
   757                           ; 0 bytes @ 0x0
   758                           
   759  0070                     ?_InterTimer:	
   760                           ; 0 bytes @ 0x0
   761                           
   762  0070                     ?_main:	
   763                           ; 0 bytes @ 0x0
   764                           
   765  0070                     ?i1_uartget:	
   766                           ; 0 bytes @ 0x0
   767                           
   768  0070                     ?_E2promRead:	
   769                           ; 0 bytes @ 0x0
   770                           
   771  0070                     ?i1___wmul:	
   772                           ; 1 bytes @ 0x0
   773                           
   774  0070                     i1___wmul@multiplier:	
   775                           ; 2 bytes @ 0x0
   776                           
   777                           
   778                           ; 2 bytes @ 0x0
   779  0070                     	ds	2
   780  0072                     i1___wmul@multiplicand:	
   781                           
   782                           ; 2 bytes @ 0x2
   783  0072                     	ds	2
   784  0074                     ??i1___wmul:	
   785  0074                     i1___wmul@product:	
   786                           ; 0 bytes @ 0x4
   787                           
   788                           
   789                           ; 2 bytes @ 0x4
   790  0074                     	ds	2
   791  0076                     ??_InterTimer:	
   792                           
   793                           ; 0 bytes @ 0x6
   794  0076                     	ds	1
   795                           
   796                           	psect	cstackBANK0
   797  0047                     __pcstackBANK0:	
   798  0047                     ??i1_uartget:	
   799                           
   800                           ; 0 bytes @ 0x0
   801  0047                     	ds	10
   802  0051                     ??_setpin:	
   803  0051                     ??_E2promRead:	
   804                           ; 0 bytes @ 0xA
   805                           
   806  0051                     ?___wmul:	
   807                           ; 0 bytes @ 0xA
   808                           
   809  0051                     ___wmul@multiplier:	
   810                           ; 2 bytes @ 0xA
   811                           
   812                           
   813                           ; 2 bytes @ 0xA
   814  0051                     	ds	2
   815  0053                     E2promRead@adr:	
   816  0053                     ___wmul@multiplicand:	
   817                           ; 1 bytes @ 0xC
   818                           
   819                           
   820                           ; 2 bytes @ 0xC
   821  0053                     	ds	2
   822  0055                     ??___wmul:	
   823  0055                     ___wmul@product:	
   824                           ; 0 bytes @ 0xE
   825                           
   826                           
   827                           ; 2 bytes @ 0xE
   828  0055                     	ds	2
   829  0057                     ??_change:	
   830  0057                     ??_uartget:	
   831                           ; 0 bytes @ 0x10
   832                           
   833                           
   834                           ; 0 bytes @ 0x10
   835  0057                     	ds	10
   836  0061                     ??_main:	
   837                           
   838                           ; 0 bytes @ 0x1A
   839  0061                     	ds	1
   840  0062                     main@individual:	
   841                           
   842                           ; 1 bytes @ 0x1B
   843  0062                     	ds	1
   844                           
   845                           	psect	maintext
   846  05A9                     __pmaintext:	
   847 ;;
   848 ;;Main: autosize = 0, tempsize = 1, incstack = 0, save=0
   849 ;;
   850 ;; *************** function _main *****************
   851 ;; Defined at:
   852 ;;		line 211 in file "ver0.0_20140727.c"
   853 ;; Parameters:    Size  Location     Type
   854 ;;		None
   855 ;; Auto vars:     Size  Location     Type
   856 ;;  individual      1   27[BANK0 ] unsigned char 
   857 ;; Return value:  Size  Location     Type
   858 ;;		None               void
   859 ;; Registers used:
   860 ;;		wreg, fsr0l, fsr0h, fsr1l, fsr1h, status,2, status,0, pclath, cstack
   861 ;; Tracked objects:
   862 ;;		On entry : 17F/0
   863 ;;		On exit  : 0/0
   864 ;;		Unchanged: 0/0
   865 ;; Data sizes:     COMMON   BANK0   BANK1   BANK2   BANK3   BANK4   BANK5   BANK6   BANK7   BANK8   BANK9  BANK10  BANK1
      +1  BANK12
   866 ;;      Params:         0       0       0       0       0       0       0       0       0       0       0       0       
      +0       0
   867 ;;      Locals:         0       1       0       0       0       0       0       0       0       0       0       0       
      +0       0
   868 ;;      Temps:          0       1       0       0       0       0       0       0       0       0       0       0       
      +0       0
   869 ;;      Totals:         0       2       0       0       0       0       0       0       0       0       0       0       
      +0       0
   870 ;;Total ram usage:        2 bytes
   871 ;; Hardware stack levels required when called:    5
   872 ;; This function calls:
   873 ;;		_E2promRead
   874 ;;		_change
   875 ;;		_setpin
   876 ;;		_uartget
   877 ;; This function is called by:
   878 ;;		Startup code after reset
   879 ;; This function uses a non-reentrant model
   880 ;;
   881                           
   882                           
   883                           ;psect for function _main
   884  05A9                     _main:	
   885                           
   886                           ;ver0.0_20140727.c: 214: char individual=255;
   887                           
   888                           ;incstack = 0
   889                           ; Regs used in _main: [wreg-fsr1h+status,2+status,0+pclath+cstack]
   890  05A9  30FF               	movlw	255
   891  05AA  0020               	movlb	0	; select bank0
   892  05AB  00E1               	movwf	??_main
   893  05AC  0861               	movf	??_main,w
   894  05AD  00E2               	movwf	main@individual
   895                           
   896                           ;ver0.0_20140727.c: 215: setpin();
   897  05AE  3186  265A  3185   	fcall	_setpin
   898                           
   899                           ;ver0.0_20140727.c: 216: TRISC7 = 1; TRISC6 = 0; SPBRG = ((int)((32000000)/((16L)*(38400
      +                          L)))-1); RCSTA = (0|0x90); TXSTA = (0x4|0|0x20); BAUDCON = 0;
   900  05B1  0021               	movlb	1	; select bank1
   901  05B2  178E               	bsf	14,7	;volatile
   902  05B3  130E               	bcf	14,6	;volatile
   903  05B4  3033               	movlw	51
   904  05B5  0023               	movlb	3	; select bank3
   905  05B6  009B               	movwf	27	;volatile
   906  05B7  3090               	movlw	144
   907  05B8  009D               	movwf	29	;volatile
   908  05B9  3024               	movlw	36
   909  05BA  009E               	movwf	30	;volatile
   910  05BB  019F               	clrf	31	;volatile
   911                           
   912                           ;ver0.0_20140727.c: 217: individual=E2promRead(0x00);
   913  05BC  3000               	movlw	0
   914  05BD  3186  2682  3185   	fcall	_E2promRead
   915  05C0  0020               	movlb	0	; select bank0
   916  05C1  00E1               	movwf	??_main
   917  05C2  0861               	movf	??_main,w
   918  05C3  00E2               	movwf	main@individual
   919                           
   920                           ;ver0.0_20140727.c: 218: OPTION_REG = 0b0000010 ;
   921  05C4  3002               	movlw	2
   922  05C5  0021               	movlb	1	; select bank1
   923  05C6  0095               	movwf	21	;volatile
   924                           
   925                           ;ver0.0_20140727.c: 219: TMR0 = 61 ;
   926  05C7  303D               	movlw	61
   927  05C8  0020               	movlb	0	; select bank0
   928  05C9  0095               	movwf	21	;volatile
   929                           
   930                           ;ver0.0_20140727.c: 220: TMR0IF = 0 ;
   931  05CA  110B               	bcf	11,2	;volatile
   932                           
   933                           ;ver0.0_20140727.c: 221: time = 0 ;
   934  05CB  01C6               	clrf	_time
   935                           
   936                           ;ver0.0_20140727.c: 222: TMR0IE = 1 ;
   937  05CC  168B               	bsf	11,5	;volatile
   938                           
   939                           ;ver0.0_20140727.c: 223: WPUB = 0xC0;
   940  05CD  30C0               	movlw	192
   941  05CE  0024               	movlb	4	; select bank4
   942  05CF  008D               	movwf	13	;volatile
   943                           
   944                           ;ver0.0_20140727.c: 224: nWPUEN = 0;
   945  05D0  0021               	movlb	1	; select bank1
   946  05D1  1395               	bcf	21,7	;volatile
   947                           
   948                           ;ver0.0_20140727.c: 225: GIE = 0 ;
   949  05D2  138B               	bcf	11,7	;volatile
   950                           
   951                           ;ver0.0_20140727.c: 230: uartget();
   952  05D3  3180  205B  3185   	fcall	_uartget
   953  05D6                     l262:	
   954                           ;ver0.0_20140727.c: 232: {
   955                           ;ver0.0_20140727.c: 233: while(RD4==0);
   956                           
   957                           ;ver0.0_20140727.c: 231: while(1)
   958                           
   959  05D6  0020               	movlb	0	; select bank0
   960  05D7  1E0F               	btfss	15,4	;volatile
   961  05D8  2DD6               	goto	l262
   962                           
   963                           ;ver0.0_20140727.c: 234: change();
   964  05D9  3184  24F9  3185   	fcall	_change
   965  05DC                     l265:	
   966                           ;ver0.0_20140727.c: 235: while(RD4==1);
   967                           
   968  05DC  0020               	movlb	0	; select bank0
   969  05DD  1A0F               	btfsc	15,4	;volatile
   970  05DE  2DDC               	goto	l265
   971                           
   972                           ;ver0.0_20140727.c: 236: change();
   973  05DF  3184  24F9  3185   	fcall	_change
   974  05E2  2DD6               	goto	l262
   975  05E3                     l271:	
   976                           ;ver0.0_20140727.c: 255: while(RD4==0);
   977                           
   978                           ;ver0.0_20140727.c: 254: while(1){
   979                           
   980                           ;ver0.0_20140727.c: 253: RD6=1;
   981                           
   982                           ;ver0.0_20140727.c: 252: i=1;0;
   983                           
   984                           ;ver0.0_20140727.c: 251: RD1=0;
   985                           
   986                           ;ver0.0_20140727.c: 250: RD0=0;
   987                           
   988                           ;ver0.0_20140727.c: 249: RC3=0;
   989                           
   990                           ;ver0.0_20140727.c: 248: RC2=0;
   991                           
   992                           ;ver0.0_20140727.c: 247: RC1=0;
   993                           
   994                           ;ver0.0_20140727.c: 246: RC0=0;
   995                           
   996                           ;ver0.0_20140727.c: 245: RA6=0;
   997                           
   998                           ;ver0.0_20140727.c: 244: RA7=0;
   999                           
  1000                           ;ver0.0_20140727.c: 243: PORTE=0xFF;
  1001                           
  1002                           ;ver0.0_20140727.c: 242: PORTD=0xFF;
  1003                           
  1004                           ;ver0.0_20140727.c: 241: PORTC=0xFF;
  1005                           
  1006                           ;ver0.0_20140727.c: 240: PORTB=0xFF;
  1007                           
  1008                           ;ver0.0_20140727.c: 237: }
  1009                           ;ver0.0_20140727.c: 239: PORTA=0xFF;
  1010                           
  1011  05E3  1E0F               	btfss	15,4	;volatile
  1012  05E4  2DE3               	goto	l271
  1013                           
  1014                           ;ver0.0_20140727.c: 256: if(RD5==1)
  1015  05E5  1E8F               	btfss	15,5	;volatile
  1016  05E6  2DFD               	goto	l2181
  1017                           
  1018                           ;ver0.0_20140727.c: 257: i=8;
  1019  05E7  3008               	movlw	8
  1020  05E8  00E1               	movwf	??_main
  1021  05E9  0861               	movf	??_main,w
  1022  05EA  00C2               	movwf	_i
  1023                           
  1024                           ;ver0.0_20140727.c: 259: switch(i){
  1025  05EB  2DFD               	goto	l2181
  1026  05EC                     l276:	
  1027                           ;ver0.0_20140727.c: 260: case 1:RA7=1;break;
  1028                           
  1029  05EC  178C               	bsf	12,7	;volatile
  1030  05ED  2E0A               	goto	l285
  1031  05EE                     l278:	
  1032                           ;ver0.0_20140727.c: 261: case 2:RA6=1;break;
  1033                           
  1034  05EE  170C               	bsf	12,6	;volatile
  1035  05EF  2E0A               	goto	l285
  1036  05F0                     l279:	
  1037                           ;ver0.0_20140727.c: 262: case 3:RC0=1;break;
  1038                           
  1039  05F0  140E               	bsf	14,0	;volatile
  1040  05F1  2E0A               	goto	l285
  1041  05F2                     l280:	
  1042                           ;ver0.0_20140727.c: 263: case 4:RC1=1;break;
  1043                           
  1044  05F2  148E               	bsf	14,1	;volatile
  1045  05F3  2E0A               	goto	l285
  1046  05F4                     l281:	
  1047                           ;ver0.0_20140727.c: 264: case 5:RC2=1;break;
  1048                           
  1049  05F4  150E               	bsf	14,2	;volatile
  1050  05F5  2E0A               	goto	l285
  1051  05F6                     l282:	
  1052                           ;ver0.0_20140727.c: 265: case 6:RC3=1;break;
  1053                           
  1054  05F6  158E               	bsf	14,3	;volatile
  1055  05F7  2E0A               	goto	l285
  1056  05F8                     l283:	
  1057                           ;ver0.0_20140727.c: 266: case 7:RD0=1;break;
  1058                           
  1059  05F8  140F               	bsf	15,0	;volatile
  1060  05F9  2E0A               	goto	l285
  1061  05FA                     l284:	
  1062                           ;ver0.0_20140727.c: 267: case 8:RD1=1;i=0;break;
  1063                           
  1064  05FA  148F               	bsf	15,1	;volatile
  1065  05FB  01C2               	clrf	_i
  1066                           
  1067                           ;ver0.0_20140727.c: 268: }
  1068  05FC  2E0A               	goto	l285
  1069  05FD                     l2181:	
  1070  05FD  0842               	movf	_i,w
  1071                           
  1072                           ; Switch size 1, requested type "space"
  1073                           ; Number of cases is 8, Range of values is 1 to 8
  1074                           ; switch strategies available:
  1075                           ; Name         Instructions Cycles
  1076                           ; direct_byte           25     9 (fixed)
  1077                           ; simple_byte           25    13 (average)
  1078                           ; jumptable            263     9 (fixed)
  1079                           ;	Chosen strategy is direct_byte
  1080  05FE  3EFF               	addlw	-1
  1081  05FF  1C03               	skipc
  1082  0600  2E0A               	goto	l285
  1083  0601  0084               	movwf	4
  1084  0602  3008               	movlw	8
  1085  0603  0204               	subwf	4,w
  1086  0604  1803               	skipnc
  1087  0605  2E0A               	goto	l285
  1088  0606  3186               	movlp	high S2223
  1089  0607  3504               	lslf	4,w
  1090  0608  3E72               	addlw	low S2223
  1091  0609  0082               	movwf	2
  1092  060A                     l285:	
  1093                           ;ver0.0_20140727.c: 270: while(RD4==1);
  1094                           
  1095  060A  1A0F               	btfsc	15,4	;volatile
  1096  060B  2E0A               	goto	l285
  1097                           
  1098                           ;ver0.0_20140727.c: 272: RA7=0;
  1099  060C  138C               	bcf	12,7	;volatile
  1100                           
  1101                           ;ver0.0_20140727.c: 273: RA6=0;
  1102  060D  130C               	bcf	12,6	;volatile
  1103                           
  1104                           ;ver0.0_20140727.c: 274: RC0=0;
  1105  060E  100E               	bcf	14,0	;volatile
  1106                           
  1107                           ;ver0.0_20140727.c: 275: RC1=0;
  1108  060F  108E               	bcf	14,1	;volatile
  1109                           
  1110                           ;ver0.0_20140727.c: 276: RC2=0;
  1111  0610  110E               	bcf	14,2	;volatile
  1112                           
  1113                           ;ver0.0_20140727.c: 277: RC3=0;
  1114  0611  118E               	bcf	14,3	;volatile
  1115                           
  1116                           ;ver0.0_20140727.c: 278: RD0=0;
  1117  0612  100F               	bcf	15,0	;volatile
  1118                           
  1119                           ;ver0.0_20140727.c: 279: RD1=0;
  1120  0613  108F               	bcf	15,1	;volatile
  1121                           
  1122                           ;ver0.0_20140727.c: 280: PORTC=0b11110000;
  1123  0614  30F0               	movlw	240
  1124  0615  008E               	movwf	14	;volatile
  1125                           
  1126                           ;ver0.0_20140727.c: 281: PORTA=0b00111111;
  1127  0616  303F               	movlw	63
  1128  0617  008C               	movwf	12	;volatile
  1129                           
  1130                           ;ver0.0_20140727.c: 282: PORTD=0b11111100;
  1131  0618  30FC               	movlw	252
  1132  0619  008F               	movwf	15	;volatile
  1133                           
  1134                           ;ver0.0_20140727.c: 284: i++;
  1135  061A  3001               	movlw	1
  1136  061B  00E1               	movwf	??_main
  1137  061C  0861               	movf	??_main,w
  1138  061D  07C2               	addwf	_i,f
  1139  061E  2DE3               	goto	l271
  1140  061F                     __end_of_main:	
  1141                           
  1142                           	psect	swtext1
  1143  0672                     __pswtext1:	
  1144  0672                     S2223:	
  1145  0672  3185  2DEC         	ljmp	l276
  1146  0674  3185  2DEE         	ljmp	l278
  1147  0676  3185  2DF0         	ljmp	l279
  1148  0678  3185  2DF2         	ljmp	l280
  1149  067A  3185  2DF4         	ljmp	l281
  1150  067C  3185  2DF6         	ljmp	l282
  1151  067E  3185  2DF8         	ljmp	l283
  1152  0680  3185  2DFA         	ljmp	l284
  1153                           
  1154                           	psect	text1
  1155  005B                     __ptext1:	
  1156 ;; *************** function _uartget *****************
  1157 ;; Defined at:
  1158 ;;		line 45 in file "ver0.0_20140727.c"
  1159 ;; Parameters:    Size  Location     Type
  1160 ;;		None
  1161 ;; Auto vars:     Size  Location     Type
  1162 ;;		None
  1163 ;; Return value:  Size  Location     Type
  1164 ;;		None               void
  1165 ;; Registers used:
  1166 ;;		wreg, fsr1l, fsr1h, status,2, status,0, pclath, cstack
  1167 ;; Tracked objects:
  1168 ;;		On entry : 0/0
  1169 ;;		On exit  : 0/0
  1170 ;;		Unchanged: 0/0
  1171 ;; Data sizes:     COMMON   BANK0   BANK1   BANK2   BANK3   BANK4   BANK5   BANK6   BANK7   BANK8   BANK9  BANK10  BANK1
      +1  BANK12
  1172 ;;      Params:         0       0       0       0       0       0       0       0       0       0       0       0       
      +0       0
  1173 ;;      Locals:         0       0       0       0       0       0       0       0       0       0       0       0       
      +0       0
  1174 ;;      Temps:          0      10       0       0       0       0       0       0       0       0       0       0       
      +0       0
  1175 ;;      Totals:         0      10       0       0       0       0       0       0       0       0       0       0       
      +0       0
  1176 ;;Total ram usage:       10 bytes
  1177 ;; Hardware stack levels used:    1
  1178 ;; Hardware stack levels required when called:    4
  1179 ;; This function calls:
  1180 ;;		___wmul
  1181 ;; This function is called by:
  1182 ;;		_main
  1183 ;; This function uses a non-reentrant model
  1184 ;;
  1185                           
  1186                           
  1187                           ;psect for function _uartget
  1188  005B                     _uartget:	
  1189                           
  1190                           ;ver0.0_20140727.c: 81: gettingSuccess=2;
  1191                           
  1192                           ;incstack = 0
  1193                           ; Regs used in _uartget: [wreg+fsr1l+fsr1h+status,2+status,0+pclath+cstack]
  1194  005B  3002               	movlw	2
  1195  005C  0020               	movlb	0	; select bank0
  1196  005D  00D7               	movwf	??_uartget
  1197  005E  0857               	movf	??_uartget,w
  1198  005F  00E3               	movwf	_gettingSuccess
  1199                           
  1200                           ;ver0.0_20140727.c: 83: getdata[0]= 0x51 ;
  1201  0060  3051               	movlw	81
  1202  0061  00D7               	movwf	??_uartget
  1203  0062  0857               	movf	??_uartget,w
  1204  0063  0021               	movlb	1	; select bank1
  1205  0064  00A0               	movwf	_getdata^(0+128)
  1206                           
  1207                           ;ver0.0_20140727.c: 84: getdata[1]= 0x8F ;
  1208  0065  308F               	movlw	143
  1209  0066  0020               	movlb	0	; select bank0
  1210  0067  00D7               	movwf	??_uartget
  1211  0068  0857               	movf	??_uartget,w
  1212  0069  0021               	movlb	1	; select bank1
  1213  006A  00A1               	movwf	(_getdata^(0+128)+1)
  1214                           
  1215                           ;ver0.0_20140727.c: 85: getdata[2]= 0x3F ;
  1216  006B  303F               	movlw	63
  1217  006C  0020               	movlb	0	; select bank0
  1218  006D  00D7               	movwf	??_uartget
  1219  006E  0857               	movf	??_uartget,w
  1220  006F  0021               	movlb	1	; select bank1
  1221  0070  00A2               	movwf	(_getdata^(0+128)+2)
  1222                           
  1223                           ;ver0.0_20140727.c: 86: getdata[3]= 0x8 ;
  1224  0071  3008               	movlw	8
  1225  0072  0020               	movlb	0	; select bank0
  1226  0073  00D7               	movwf	??_uartget
  1227  0074  0857               	movf	??_uartget,w
  1228  0075  0021               	movlb	1	; select bank1
  1229  0076  00A3               	movwf	(_getdata^(0+128)+3)
  1230                           
  1231                           ;ver0.0_20140727.c: 87: getdata[4]= 0x40 ;
  1232  0077  3040               	movlw	64
  1233  0078  0020               	movlb	0	; select bank0
  1234  0079  00D7               	movwf	??_uartget
  1235  007A  0857               	movf	??_uartget,w
  1236  007B  0021               	movlb	1	; select bank1
  1237  007C  00A4               	movwf	(_getdata^(0+128)+4)
  1238                           
  1239                           ;ver0.0_20140727.c: 88: getdata[5]= 0x0 ;
  1240  007D  01A5               	clrf	(_getdata^(0+128)+5)
  1241                           
  1242                           ;ver0.0_20140727.c: 89: getdata[6]= 0x0 ;
  1243  007E  01A6               	clrf	(_getdata^(0+128)+6)
  1244                           
  1245                           ;ver0.0_20140727.c: 90: getdata[7]= 0x18 ;
  1246  007F  3018               	movlw	24
  1247  0080  0020               	movlb	0	; select bank0
  1248  0081  00D7               	movwf	??_uartget
  1249  0082  0857               	movf	??_uartget,w
  1250  0083  0021               	movlb	1	; select bank1
  1251  0084  00A7               	movwf	(_getdata^(0+128)+7)
  1252                           
  1253                           ;ver0.0_20140727.c: 91: getdata[8]= 0x48 ;
  1254  0085  3048               	movlw	72
  1255  0086  0020               	movlb	0	; select bank0
  1256  0087  00D7               	movwf	??_uartget
  1257  0088  0857               	movf	??_uartget,w
  1258  0089  0021               	movlb	1	; select bank1
  1259  008A  00A8               	movwf	(_getdata^(0+128)+8)
  1260                           
  1261                           ;ver0.0_20140727.c: 92: getdata[9]= 0x0 ;
  1262  008B  01A9               	clrf	(_getdata^(0+128)+9)
  1263                           
  1264                           ;ver0.0_20140727.c: 93: getdata[10]= 0x0 ;
  1265  008C  01AA               	clrf	(_getdata^(0+128)+10)
  1266                           
  1267                           ;ver0.0_20140727.c: 94: getdata[11]= 0x8 ;
  1268  008D  3008               	movlw	8
  1269  008E  0020               	movlb	0	; select bank0
  1270  008F  00D7               	movwf	??_uartget
  1271  0090  0857               	movf	??_uartget,w
  1272  0091  0021               	movlb	1	; select bank1
  1273  0092  00AB               	movwf	(_getdata^(0+128)+11)
  1274                           
  1275                           ;ver0.0_20140727.c: 95: getdata[12]= 0x40 ;
  1276  0093  3040               	movlw	64
  1277  0094  0020               	movlb	0	; select bank0
  1278  0095  00D7               	movwf	??_uartget
  1279  0096  0857               	movf	??_uartget,w
  1280  0097  0021               	movlb	1	; select bank1
  1281  0098  00AC               	movwf	(_getdata^(0+128)+12)
  1282                           
  1283                           ;ver0.0_20140727.c: 96: getdata[13]= 0x0 ;
  1284  0099  01AD               	clrf	(_getdata^(0+128)+13)
  1285                           
  1286                           ;ver0.0_20140727.c: 97: getdata[14]= 0x0 ;
  1287  009A  01AE               	clrf	(_getdata^(0+128)+14)
  1288                           
  1289                           ;ver0.0_20140727.c: 98: getdata[15]= 0x28 ;
  1290  009B  3028               	movlw	40
  1291  009C  0020               	movlb	0	; select bank0
  1292  009D  00D7               	movwf	??_uartget
  1293  009E  0857               	movf	??_uartget,w
  1294  009F  0021               	movlb	1	; select bank1
  1295  00A0  00AF               	movwf	(_getdata^(0+128)+15)
  1296                           
  1297                           ;ver0.0_20140727.c: 99: getdata[16]= 0x44 ;
  1298  00A1  3044               	movlw	68
  1299  00A2  0020               	movlb	0	; select bank0
  1300  00A3  00D7               	movwf	??_uartget
  1301  00A4  0857               	movf	??_uartget,w
  1302  00A5  0021               	movlb	1	; select bank1
  1303  00A6  00B0               	movwf	(_getdata^(0+128)+16)
  1304                           
  1305                           ;ver0.0_20140727.c: 100: getdata[17]= 0x0 ;
  1306  00A7  01B1               	clrf	(_getdata^(0+128)+17)
  1307                           
  1308                           ;ver0.0_20140727.c: 101: getdata[18]= 0x0 ;
  1309  00A8  01B2               	clrf	(_getdata^(0+128)+18)
  1310                           
  1311                           ;ver0.0_20140727.c: 102: getdata[19]= 0x8 ;
  1312  00A9  3008               	movlw	8
  1313  00AA  0020               	movlb	0	; select bank0
  1314  00AB  00D7               	movwf	??_uartget
  1315  00AC  0857               	movf	??_uartget,w
  1316  00AD  0021               	movlb	1	; select bank1
  1317  00AE  00B3               	movwf	(_getdata^(0+128)+19)
  1318                           
  1319                           ;ver0.0_20140727.c: 103: getdata[20]= 0x40 ;
  1320  00AF  3040               	movlw	64
  1321  00B0  0020               	movlb	0	; select bank0
  1322  00B1  00D7               	movwf	??_uartget
  1323  00B2  0857               	movf	??_uartget,w
  1324  00B3  0021               	movlb	1	; select bank1
  1325  00B4  00B4               	movwf	(_getdata^(0+128)+20)
  1326                           
  1327                           ;ver0.0_20140727.c: 104: getdata[21]= 0x0 ;
  1328  00B5  01B5               	clrf	(_getdata^(0+128)+21)
  1329                           
  1330                           ;ver0.0_20140727.c: 105: getdata[22]= 0x0 ;
  1331  00B6  01B6               	clrf	(_getdata^(0+128)+22)
  1332                           
  1333                           ;ver0.0_20140727.c: 106: getdata[23]= 0x48 ;
  1334  00B7  3048               	movlw	72
  1335  00B8  0020               	movlb	0	; select bank0
  1336  00B9  00D7               	movwf	??_uartget
  1337  00BA  0857               	movf	??_uartget,w
  1338  00BB  0021               	movlb	1	; select bank1
  1339  00BC  00B7               	movwf	(_getdata^(0+128)+23)
  1340                           
  1341                           ;ver0.0_20140727.c: 107: getdata[24]= 0x42 ;
  1342  00BD  3042               	movlw	66
  1343  00BE  0020               	movlb	0	; select bank0
  1344  00BF  00D7               	movwf	??_uartget
  1345  00C0  0857               	movf	??_uartget,w
  1346  00C1  0021               	movlb	1	; select bank1
  1347  00C2  00B8               	movwf	(_getdata^(0+128)+24)
  1348                           
  1349                           ;ver0.0_20140727.c: 108: getdata[25]= 0x0 ;
  1350  00C3  01B9               	clrf	(_getdata^(0+128)+25)
  1351                           
  1352                           ;ver0.0_20140727.c: 109: getdata[26]= 0x0 ;
  1353  00C4  01BA               	clrf	(_getdata^(0+128)+26)
  1354                           
  1355                           ;ver0.0_20140727.c: 110: getdata[27]= 0x8 ;
  1356  00C5  3008               	movlw	8
  1357  00C6  0020               	movlb	0	; select bank0
  1358  00C7  00D7               	movwf	??_uartget
  1359  00C8  0857               	movf	??_uartget,w
  1360  00C9  0021               	movlb	1	; select bank1
  1361  00CA  00BB               	movwf	(_getdata^(0+128)+27)
  1362                           
  1363                           ;ver0.0_20140727.c: 111: getdata[28]= 0x7F ;
  1364  00CB  307F               	movlw	127
  1365  00CC  0020               	movlb	0	; select bank0
  1366  00CD  00D7               	movwf	??_uartget
  1367  00CE  0857               	movf	??_uartget,w
  1368  00CF  0021               	movlb	1	; select bank1
  1369  00D0  00BC               	movwf	(_getdata^(0+128)+28)
  1370                           
  1371                           ;ver0.0_20140727.c: 112: getdata[29]= 0xFF ;
  1372  00D1  30FF               	movlw	255
  1373  00D2  0020               	movlb	0	; select bank0
  1374  00D3  00D7               	movwf	??_uartget
  1375  00D4  0857               	movf	??_uartget,w
  1376  00D5  0021               	movlb	1	; select bank1
  1377  00D6  00BD               	movwf	(_getdata^(0+128)+29)
  1378                           
  1379                           ;ver0.0_20140727.c: 113: getdata[30]= 0x3F ;
  1380  00D7  303F               	movlw	63
  1381  00D8  0020               	movlb	0	; select bank0
  1382  00D9  00D7               	movwf	??_uartget
  1383  00DA  0857               	movf	??_uartget,w
  1384  00DB  0021               	movlb	1	; select bank1
  1385  00DC  00BE               	movwf	(_getdata^(0+128)+30)
  1386                           
  1387                           ;ver0.0_20140727.c: 114: getdata[31]= 0xFF ;
  1388  00DD  30FF               	movlw	255
  1389  00DE  0020               	movlb	0	; select bank0
  1390  00DF  00D7               	movwf	??_uartget
  1391  00E0  0857               	movf	??_uartget,w
  1392  00E1  0021               	movlb	1	; select bank1
  1393  00E2  00BF               	movwf	(_getdata^(0+128)+31)
  1394                           
  1395                           ;ver0.0_20140727.c: 115: getdata[32]= 0x7F ;
  1396  00E3  307F               	movlw	127
  1397  00E4  0020               	movlb	0	; select bank0
  1398  00E5  00D7               	movwf	??_uartget
  1399  00E6  0857               	movf	??_uartget,w
  1400  00E7  0021               	movlb	1	; select bank1
  1401  00E8  00C0               	movwf	(_getdata^(0+128)+32)
  1402                           
  1403                           ;ver0.0_20140727.c: 116: getdata[33]= 0xFF ;
  1404  00E9  30FF               	movlw	255
  1405  00EA  0020               	movlb	0	; select bank0
  1406  00EB  00D7               	movwf	??_uartget
  1407  00EC  0857               	movf	??_uartget,w
  1408  00ED  0021               	movlb	1	; select bank1
  1409  00EE  00C1               	movwf	(_getdata^(0+128)+33)
  1410                           
  1411                           ;ver0.0_20140727.c: 117: getdata[34]= 0x3F ;
  1412  00EF  303F               	movlw	63
  1413  00F0  0020               	movlb	0	; select bank0
  1414  00F1  00D7               	movwf	??_uartget
  1415  00F2  0857               	movf	??_uartget,w
  1416  00F3  0021               	movlb	1	; select bank1
  1417  00F4  00C2               	movwf	(_getdata^(0+128)+34)
  1418                           
  1419                           ;ver0.0_20140727.c: 118: getdata[35]= 0xFF ;
  1420  00F5  30FF               	movlw	255
  1421  00F6  0020               	movlb	0	; select bank0
  1422  00F7  00D7               	movwf	??_uartget
  1423  00F8  0857               	movf	??_uartget,w
  1424  00F9  0021               	movlb	1	; select bank1
  1425  00FA  00C3               	movwf	(_getdata^(0+128)+35)
  1426                           
  1427                           ;ver0.0_20140727.c: 119: getdata[36]= 0x40 ;
  1428  00FB  3040               	movlw	64
  1429  00FC  0020               	movlb	0	; select bank0
  1430  00FD  00D7               	movwf	??_uartget
  1431  00FE  0857               	movf	??_uartget,w
  1432  00FF  0021               	movlb	1	; select bank1
  1433  0100  00C4               	movwf	(_getdata^(0+128)+36)
  1434                           
  1435                           ;ver0.0_20140727.c: 120: getdata[37]= 0x0 ;
  1436  0101  01C5               	clrf	(_getdata^(0+128)+37)
  1437                           
  1438                           ;ver0.0_20140727.c: 121: getdata[38]= 0x0 ;
  1439  0102  01C6               	clrf	(_getdata^(0+128)+38)
  1440                           
  1441                           ;ver0.0_20140727.c: 122: getdata[39]= 0x8 ;
  1442  0103  3008               	movlw	8
  1443  0104  0020               	movlb	0	; select bank0
  1444  0105  00D7               	movwf	??_uartget
  1445  0106  0857               	movf	??_uartget,w
  1446  0107  0021               	movlb	1	; select bank1
  1447  0108  00C7               	movwf	(_getdata^(0+128)+39)
  1448                           
  1449                           ;ver0.0_20140727.c: 123: getdata[40]= 0x40 ;
  1450  0109  3040               	movlw	64
  1451  010A  0020               	movlb	0	; select bank0
  1452  010B  00D7               	movwf	??_uartget
  1453  010C  0857               	movf	??_uartget,w
  1454  010D  0021               	movlb	1	; select bank1
  1455  010E  00C8               	movwf	(_getdata^(0+128)+40)
  1456                           
  1457                           ;ver0.0_20140727.c: 124: getdata[41]= 0x0 ;
  1458  010F  01C9               	clrf	(_getdata^(0+128)+41)
  1459                           
  1460                           ;ver0.0_20140727.c: 125: getdata[42]= 0x0 ;
  1461  0110  01CA               	clrf	(_getdata^(0+128)+42)
  1462                           
  1463                           ;ver0.0_20140727.c: 126: getdata[43]= 0x8 ;
  1464  0111  3008               	movlw	8
  1465  0112  0020               	movlb	0	; select bank0
  1466  0113  00D7               	movwf	??_uartget
  1467  0114  0857               	movf	??_uartget,w
  1468  0115  0021               	movlb	1	; select bank1
  1469  0116  00CB               	movwf	(_getdata^(0+128)+43)
  1470                           
  1471                           ;ver0.0_20140727.c: 127: getdata[44]= 0x40 ;
  1472  0117  3040               	movlw	64
  1473  0118  0020               	movlb	0	; select bank0
  1474  0119  00D7               	movwf	??_uartget
  1475  011A  0857               	movf	??_uartget,w
  1476  011B  0021               	movlb	1	; select bank1
  1477  011C  00CC               	movwf	(_getdata^(0+128)+44)
  1478                           
  1479                           ;ver0.0_20140727.c: 128: getdata[45]= 0x0 ;
  1480  011D  01CD               	clrf	(_getdata^(0+128)+45)
  1481                           
  1482                           ;ver0.0_20140727.c: 129: getdata[46]= 0x0 ;
  1483  011E  01CE               	clrf	(_getdata^(0+128)+46)
  1484                           
  1485                           ;ver0.0_20140727.c: 130: getdata[47]= 0x8 ;
  1486  011F  3008               	movlw	8
  1487  0120  0020               	movlb	0	; select bank0
  1488  0121  00D7               	movwf	??_uartget
  1489  0122  0857               	movf	??_uartget,w
  1490  0123  0021               	movlb	1	; select bank1
  1491  0124  00CF               	movwf	(_getdata^(0+128)+47)
  1492                           
  1493                           ;ver0.0_20140727.c: 131: getdata[48]= 0x40 ;
  1494  0125  3040               	movlw	64
  1495  0126  0020               	movlb	0	; select bank0
  1496  0127  00D7               	movwf	??_uartget
  1497  0128  0857               	movf	??_uartget,w
  1498  0129  0021               	movlb	1	; select bank1
  1499  012A  00D0               	movwf	(_getdata^(0+128)+48)
  1500                           
  1501                           ;ver0.0_20140727.c: 132: getdata[49]= 0x0 ;
  1502  012B  01D1               	clrf	(_getdata^(0+128)+49)
  1503                           
  1504                           ;ver0.0_20140727.c: 133: getdata[50]= 0x0 ;
  1505  012C  01D2               	clrf	(_getdata^(0+128)+50)
  1506                           
  1507                           ;ver0.0_20140727.c: 134: getdata[51]= 0x8 ;
  1508  012D  3008               	movlw	8
  1509  012E  0020               	movlb	0	; select bank0
  1510  012F  00D7               	movwf	??_uartget
  1511  0130  0857               	movf	??_uartget,w
  1512  0131  0021               	movlb	1	; select bank1
  1513  0132  00D3               	movwf	(_getdata^(0+128)+51)
  1514                           
  1515                           ;ver0.0_20140727.c: 135: getdata[52]= 0x40 ;
  1516  0133  3040               	movlw	64
  1517  0134  0020               	movlb	0	; select bank0
  1518  0135  00D7               	movwf	??_uartget
  1519  0136  0857               	movf	??_uartget,w
  1520  0137  0021               	movlb	1	; select bank1
  1521  0138  00D4               	movwf	(_getdata^(0+128)+52)
  1522                           
  1523                           ;ver0.0_20140727.c: 136: getdata[53]= 0x0 ;
  1524  0139  01D5               	clrf	(_getdata^(0+128)+53)
  1525                           
  1526                           ;ver0.0_20140727.c: 137: getdata[54]= 0x0 ;
  1527  013A  01D6               	clrf	(_getdata^(0+128)+54)
  1528                           
  1529                           ;ver0.0_20140727.c: 138: getdata[55]= 0x8 ;
  1530  013B  3008               	movlw	8
  1531  013C  0020               	movlb	0	; select bank0
  1532  013D  00D7               	movwf	??_uartget
  1533  013E  0857               	movf	??_uartget,w
  1534  013F  0021               	movlb	1	; select bank1
  1535  0140  00D7               	movwf	(_getdata^(0+128)+55)
  1536                           
  1537                           ;ver0.0_20140727.c: 139: getdata[56]= 0x40 ;
  1538  0141  3040               	movlw	64
  1539  0142  0020               	movlb	0	; select bank0
  1540  0143  00D7               	movwf	??_uartget
  1541  0144  0857               	movf	??_uartget,w
  1542  0145  0021               	movlb	1	; select bank1
  1543  0146  00D8               	movwf	(_getdata^(0+128)+56)
  1544                           
  1545                           ;ver0.0_20140727.c: 140: getdata[57]= 0x0 ;
  1546  0147  01D9               	clrf	(_getdata^(0+128)+57)
  1547                           
  1548                           ;ver0.0_20140727.c: 141: getdata[58]= 0x0 ;
  1549  0148  01DA               	clrf	(_getdata^(0+128)+58)
  1550                           
  1551                           ;ver0.0_20140727.c: 142: getdata[59]= 0x8 ;
  1552  0149  3008               	movlw	8
  1553  014A  0020               	movlb	0	; select bank0
  1554  014B  00D7               	movwf	??_uartget
  1555  014C  0857               	movf	??_uartget,w
  1556  014D  0021               	movlb	1	; select bank1
  1557  014E  00DB               	movwf	(_getdata^(0+128)+59)
  1558                           
  1559                           ;ver0.0_20140727.c: 143: getdata[60]= 0x41 ;
  1560  014F  3041               	movlw	65
  1561  0150  0020               	movlb	0	; select bank0
  1562  0151  00D7               	movwf	??_uartget
  1563  0152  0857               	movf	??_uartget,w
  1564  0153  0021               	movlb	1	; select bank1
  1565  0154  00DC               	movwf	(_getdata^(0+128)+60)
  1566                           
  1567                           ;ver0.0_20140727.c: 144: getdata[61]= 0x8F ;
  1568  0155  308F               	movlw	143
  1569  0156  0020               	movlb	0	; select bank0
  1570  0157  00D7               	movwf	??_uartget
  1571  0158  0857               	movf	??_uartget,w
  1572  0159  0021               	movlb	1	; select bank1
  1573  015A  00DD               	movwf	(_getdata^(0+128)+61)
  1574                           
  1575                           ;ver0.0_20140727.c: 145: getdata[62]= 0x3F ;
  1576  015B  303F               	movlw	63
  1577  015C  0020               	movlb	0	; select bank0
  1578  015D  00D7               	movwf	??_uartget
  1579  015E  0857               	movf	??_uartget,w
  1580  015F  0021               	movlb	1	; select bank1
  1581  0160  00DE               	movwf	(_getdata^(0+128)+62)
  1582                           
  1583                           ;ver0.0_20140727.c: 146: getdata[63]= 0x8 ;
  1584  0161  3008               	movlw	8
  1585  0162  0020               	movlb	0	; select bank0
  1586  0163  00D7               	movwf	??_uartget
  1587  0164  0857               	movf	??_uartget,w
  1588  0165  0021               	movlb	1	; select bank1
  1589  0166  00DF               	movwf	(_getdata^(0+128)+63)
  1590                           
  1591                           ;ver0.0_20140727.c: 153: if(gettingSuccess==2){
  1592  0167  0020               	movlb	0	; select bank0
  1593  0168  0863               	movf	_gettingSuccess,w
  1594  0169  3A02               	xorlw	2
  1595  016A  1D03               	skipz
  1596  016B  0008               	return
  1597                           
  1598                           ;ver0.0_20140727.c: 154: for(i=1;i<17;i++){
  1599  016C  01C2               	clrf	_i
  1600  016D  0AC2               	incf	_i,f
  1601  016E  3011               	movlw	17
  1602  016F  0242               	subwf	_i,w
  1603  0170  1803               	btfsc	3,0
  1604  0171  29AB               	goto	l238
  1605  0172                     l2071:	
  1606                           
  1607                           ;ver0.0_20140727.c: 155: for(j=0;j<2;j++){
  1608  0172  01C3               	clrf	_j
  1609  0173  3002               	movlw	2
  1610  0174  0243               	subwf	_j,w
  1611  0175  1803               	btfsc	3,0
  1612  0176  29A3               	goto	l2085
  1613  0177                     l2077:	
  1614                           
  1615                           ;ver0.0_20140727.c: 156: n=(i-1)*4+(j+2);
  1616  0177  0842               	movf	_i,w
  1617  0178  00D7               	movwf	??_uartget
  1618  0179  3001               	movlw	1
  1619  017A                     u1845:	
  1620  017A  35D7               	lslf	??_uartget,f
  1621  017B  3EFF               	addlw	-1
  1622  017C  1D03               	skipz
  1623  017D  297A               	goto	u1845
  1624  017E  3557               	lslf	??_uartget,w
  1625  017F  0743               	addwf	_j,w
  1626  0180  3EFE               	addlw	254
  1627  0181  00D8               	movwf	??_uartget+1
  1628  0182  0858               	movf	??_uartget+1,w
  1629  0183  00C5               	movwf	_n
  1630                           
  1631                           ;ver0.0_20140727.c: 157: getKeeping[i][j]=getdata[n];
  1632  0184  0845               	movf	_n,w
  1633  0185  3EA0               	addlw	_getdata& (0+255)
  1634  0186  0086               	movwf	6
  1635  0187  0187               	clrf	7
  1636  0188  0801               	movf	1,w
  1637  0189  00D7               	movwf	??_uartget
  1638  018A  0842               	movf	_i,w
  1639  018B  00D8               	movwf	??_uartget+1
  1640  018C  3001               	movlw	1
  1641  018D                     u1855:	
  1642  018D  35D8               	lslf	??_uartget+1,f
  1643  018E  0B89               	decfsz	9,f
  1644  018F  298D               	goto	u1855
  1645  0190  3020               	movlw	_getKeeping& (0+255)
  1646  0191  0758               	addwf	??_uartget+1,w
  1647  0192  00D9               	movwf	??_uartget+2
  1648  0193  0843               	movf	_j,w
  1649  0194  0759               	addwf	??_uartget+2,w
  1650  0195  00DA               	movwf	??_uartget+3
  1651  0196  085A               	movf	??_uartget+3,w
  1652  0197  0086               	movwf	6
  1653  0198  0187               	clrf	7
  1654  0199  0857               	movf	??_uartget,w
  1655  019A  0081               	movwf	1
  1656  019B  3001               	movlw	1
  1657  019C  00D7               	movwf	??_uartget
  1658  019D  0857               	movf	??_uartget,w
  1659  019E  07C3               	addwf	_j,f
  1660  019F  3002               	movlw	2
  1661  01A0  0243               	subwf	_j,w
  1662  01A1  1C03               	skipc
  1663  01A2  2977               	goto	l2077
  1664  01A3                     l2085:	
  1665  01A3  3001               	movlw	1
  1666  01A4  00D7               	movwf	??_uartget
  1667  01A5  0857               	movf	??_uartget,w
  1668  01A6  07C2               	addwf	_i,f
  1669  01A7  3011               	movlw	17
  1670  01A8  0242               	subwf	_i,w
  1671  01A9  1C03               	skipc
  1672  01AA  2972               	goto	l2071
  1673  01AB                     l238:	
  1674                           
  1675                           ;ver0.0_20140727.c: 158: }
  1676                           ;ver0.0_20140727.c: 159: }
  1677                           ;ver0.0_20140727.c: 160: for(i=1;i<17;i++){
  1678  01AB  01C2               	clrf	_i
  1679  01AC  0AC2               	incf	_i,f
  1680  01AD  3011               	movlw	17
  1681  01AE  0242               	subwf	_i,w
  1682  01AF  1803               	btfsc	3,0
  1683  01B0  2A3F               	goto	l2099
  1684  01B1                     l2093:	
  1685                           
  1686                           ;ver0.0_20140727.c: 162: putdata[i][0]=(getKeeping[i][1]&0b00011111)<<1;
  1687  01B1  1403               	setc
  1688  01B2  0D42               	rlf	_i,w
  1689  01B3  3E20               	addlw	_getKeeping& (0+255)
  1690  01B4  0086               	movwf	6
  1691  01B5  0187               	clrf	7
  1692  01B6  0801               	movf	1,w
  1693  01B7  391F               	andlw	31
  1694  01B8  0709               	addwf	9,w
  1695  01B9  00D7               	movwf	??_uartget
  1696  01BA  0842               	movf	_i,w
  1697  01BB  00D8               	movwf	??_uartget+1
  1698  01BC  01D9               	clrf	??_uartget+2
  1699  01BD  0858               	movf	??_uartget+1,w
  1700  01BE  00D1               	movwf	___wmul@multiplier
  1701  01BF  0859               	movf	??_uartget+2,w
  1702  01C0  00D2               	movwf	___wmul@multiplier+1
  1703  01C1  3005               	movlw	5
  1704  01C2  00D3               	movwf	___wmul@multiplicand
  1705  01C3  3000               	movlw	0
  1706  01C4  00D4               	movwf	___wmul@multiplicand+1
  1707  01C5  3186  261F  3180   	fcall	___wmul
  1708  01C8  3096               	movlw	150
  1709  01C9  0020               	movlb	0	; select bank0
  1710  01CA  00DA               	movwf	??_uartget+3
  1711  01CB  3023               	movlw	35
  1712  01CC  00DB               	movwf	??_uartget+4
  1713  01CD  0851               	movf	?___wmul,w
  1714  01CE  075A               	addwf	??_uartget+3,w
  1715  01CF  00DC               	movwf	??_uartget+5
  1716  01D0  0852               	movf	?___wmul+1,w
  1717  01D1  3D5B               	addwfc	??_uartget+4,w
  1718  01D2  00DD               	movwf	??_uartget+6
  1719  01D3  085C               	movf	??_uartget+5,w
  1720  01D4  0086               	movwf	6
  1721  01D5  085D               	movf	??_uartget+6,w
  1722  01D6  0087               	movwf	7
  1723  01D7  0857               	movf	??_uartget,w
  1724  01D8  0081               	movwf	1
  1725                           
  1726                           ;ver0.0_20140727.c: 164: putdata[i][1]=getKeeping[i][0];
  1727  01D9  3542               	lslf	_i,w
  1728  01DA  3E20               	addlw	_getKeeping& (0+255)
  1729  01DB  0086               	movwf	6
  1730  01DC  0187               	clrf	7
  1731  01DD  0801               	movf	1,w
  1732  01DE  00D7               	movwf	??_uartget
  1733  01DF  0842               	movf	_i,w
  1734  01E0  00D8               	movwf	??_uartget+1
  1735  01E1  01D9               	clrf	??_uartget+2
  1736  01E2  0858               	movf	??_uartget+1,w
  1737  01E3  00D1               	movwf	___wmul@multiplier
  1738  01E4  0859               	movf	??_uartget+2,w
  1739  01E5  00D2               	movwf	___wmul@multiplier+1
  1740  01E6  3005               	movlw	5
  1741  01E7  00D3               	movwf	___wmul@multiplicand
  1742  01E8  3000               	movlw	0
  1743  01E9  00D4               	movwf	___wmul@multiplicand+1
  1744  01EA  3186  261F  3180   	fcall	___wmul
  1745  01ED  0020               	movlb	0	; select bank0
  1746  01EE  0851               	movf	?___wmul,w
  1747  01EF  3E01               	addlw	1
  1748  01F0  00DA               	movwf	??_uartget+3
  1749  01F1  3000               	movlw	0
  1750  01F2  3D52               	addwfc	?___wmul+1,w
  1751  01F3  00DB               	movwf	??_uartget+4
  1752  01F4  3096               	movlw	150
  1753  01F5  00DC               	movwf	??_uartget+5
  1754  01F6  3023               	movlw	35
  1755  01F7  00DD               	movwf	??_uartget+6
  1756  01F8  085A               	movf	??_uartget+3,w
  1757  01F9  075C               	addwf	??_uartget+5,w
  1758  01FA  00DE               	movwf	??_uartget+7
  1759  01FB  085B               	movf	??_uartget+4,w
  1760  01FC  3D5D               	addwfc	??_uartget+6,w
  1761  01FD  00DF               	movwf	??_uartget+8
  1762  01FE  085E               	movf	??_uartget+7,w
  1763  01FF  0086               	movwf	6
  1764  0200  085F               	movf	??_uartget+8,w
  1765  0201  0087               	movwf	7
  1766  0202  0857               	movf	??_uartget,w
  1767  0203  0081               	movwf	1
  1768                           
  1769                           ;ver0.0_20140727.c: 166: putdata[i][4]=(getKeeping[i][1]&0b11100000)>>5;
  1770  0204  1403               	setc
  1771  0205  0D42               	rlf	_i,w
  1772  0206  3E20               	addlw	_getKeeping& (0+255)
  1773  0207  0086               	movwf	6
  1774  0208  0187               	clrf	7
  1775  0209  0801               	movf	1,w
  1776  020A  00D7               	movwf	??_uartget
  1777  020B  3005               	movlw	5
  1778  020C                     u1895:	
  1779  020C  36D7               	lsrf	??_uartget,f
  1780  020D  0B89               	decfsz	9,f
  1781  020E  2A0C               	goto	u1895
  1782  020F  0857               	movf	??_uartget,w
  1783  0210  3907               	andlw	7
  1784  0211  00D8               	movwf	??_uartget+1
  1785  0212  0842               	movf	_i,w
  1786  0213  00D9               	movwf	??_uartget+2
  1787  0214  01DA               	clrf	??_uartget+3
  1788  0215  0859               	movf	??_uartget+2,w
  1789  0216  00D1               	movwf	___wmul@multiplier
  1790  0217  085A               	movf	??_uartget+3,w
  1791  0218  00D2               	movwf	___wmul@multiplier+1
  1792  0219  3005               	movlw	5
  1793  021A  00D3               	movwf	___wmul@multiplicand
  1794  021B  3000               	movlw	0
  1795  021C  00D4               	movwf	___wmul@multiplicand+1
  1796  021D  3186  261F  3180   	fcall	___wmul
  1797  0220  0020               	movlb	0	; select bank0
  1798  0221  0851               	movf	?___wmul,w
  1799  0222  3E04               	addlw	4
  1800  0223  00DB               	movwf	??_uartget+4
  1801  0224  3000               	movlw	0
  1802  0225  3D52               	addwfc	?___wmul+1,w
  1803  0226  00DC               	movwf	??_uartget+5
  1804  0227  3096               	movlw	150
  1805  0228  00DD               	movwf	??_uartget+6
  1806  0229  3023               	movlw	35
  1807  022A  00DE               	movwf	??_uartget+7
  1808  022B  085B               	movf	??_uartget+4,w
  1809  022C  075D               	addwf	??_uartget+6,w
  1810  022D  00DF               	movwf	??_uartget+8
  1811  022E  085C               	movf	??_uartget+5,w
  1812  022F  3D5E               	addwfc	??_uartget+7,w
  1813  0230  00E0               	movwf	??_uartget+9
  1814  0231  085F               	movf	??_uartget+8,w
  1815  0232  0086               	movwf	6
  1816  0233  0860               	movf	??_uartget+9,w
  1817  0234  0087               	movwf	7
  1818  0235  0858               	movf	??_uartget+1,w
  1819  0236  0081               	movwf	1
  1820  0237  3001               	movlw	1
  1821  0238  00D7               	movwf	??_uartget
  1822  0239  0857               	movf	??_uartget,w
  1823  023A  07C2               	addwf	_i,f
  1824  023B  3011               	movlw	17
  1825  023C  0242               	subwf	_i,w
  1826  023D  1C03               	skipc
  1827  023E  29B1               	goto	l2093
  1828  023F                     l2099:	
  1829                           
  1830                           ;ver0.0_20140727.c: 167: }
  1831                           ;ver0.0_20140727.c: 168: putdata[2][0]=putdata[2][0]|0x80;
  1832  023F  3096               	movlw	150
  1833  0240  0086               	movwf	6
  1834  0241  3023               	movlw	35
  1835  0242  0087               	movwf	7
  1836  0243  314A               	addfsr 1,10
  1837  0244  0801               	movf	1,w
  1838  0245  3880               	iorlw	128
  1839  0246  00D7               	movwf	??_uartget
  1840  0247  30A0               	movlw	160
  1841  0248  0086               	movwf	6
  1842  0249  3023               	movlw	35
  1843  024A  0087               	movwf	7
  1844  024B  0857               	movf	??_uartget,w
  1845  024C  0081               	movwf	1
  1846                           
  1847                           ;ver0.0_20140727.c: 169: putdata[4][0]=putdata[4][0]|0x40;
  1848  024D  3096               	movlw	150
  1849  024E  0086               	movwf	6
  1850  024F  3023               	movlw	35
  1851  0250  0087               	movwf	7
  1852  0251  3154               	addfsr 1,20
  1853  0252  0801               	movf	1,w
  1854  0253  3840               	iorlw	64
  1855  0254  00D7               	movwf	??_uartget
  1856  0255  30AA               	movlw	170
  1857  0256  0086               	movwf	6
  1858  0257  3023               	movlw	35
  1859  0258  0087               	movwf	7
  1860  0259  0857               	movf	??_uartget,w
  1861  025A  0081               	movwf	1
  1862                           
  1863                           ;ver0.0_20140727.c: 170: putdata[6][2]=putdata[6][2]|0x01;
  1864  025B  30B6               	movlw	182
  1865  025C  0086               	movwf	6
  1866  025D  3023               	movlw	35
  1867  025E  0087               	movwf	7
  1868  025F  0801               	movf	1,w
  1869  0260  3801               	iorlw	1
  1870  0261  00D7               	movwf	??_uartget
  1871  0262  30B6               	movlw	182
  1872  0263  0086               	movwf	6
  1873  0264  3023               	movlw	35
  1874  0265  0087               	movwf	7
  1875  0266  0857               	movf	??_uartget,w
  1876  0267  0081               	movwf	1
  1877                           
  1878                           ;ver0.0_20140727.c: 171: putdata[8][2]=putdata[8][2]|0x02;
  1879  0268  30C0               	movlw	192
  1880  0269  0086               	movwf	6
  1881  026A  3023               	movlw	35
  1882  026B  0087               	movwf	7
  1883  026C  0801               	movf	1,w
  1884  026D  3802               	iorlw	2
  1885  026E  00D7               	movwf	??_uartget
  1886  026F  30C0               	movlw	192
  1887  0270  0086               	movwf	6
  1888  0271  3023               	movlw	35
  1889  0272  0087               	movwf	7
  1890  0273  0857               	movf	??_uartget,w
  1891  0274  0081               	movwf	1
  1892                           
  1893                           ;ver0.0_20140727.c: 172: putdata[10][2]=putdata[10][2]|0x04;
  1894  0275  30CA               	movlw	202
  1895  0276  0086               	movwf	6
  1896  0277  3023               	movlw	35
  1897  0278  0087               	movwf	7
  1898  0279  0801               	movf	1,w
  1899  027A  3804               	iorlw	4
  1900  027B  00D7               	movwf	??_uartget
  1901  027C  30CA               	movlw	202
  1902  027D  0086               	movwf	6
  1903  027E  3023               	movlw	35
  1904  027F  0087               	movwf	7
  1905  0280  0857               	movf	??_uartget,w
  1906  0281  0081               	movwf	1
  1907                           
  1908                           ;ver0.0_20140727.c: 173: putdata[12][2]=putdata[12][2]|0x08;
  1909  0282  30D4               	movlw	212
  1910  0283  0086               	movwf	6
  1911  0284  3023               	movlw	35
  1912  0285  0087               	movwf	7
  1913  0286  0801               	movf	1,w
  1914  0287  3808               	iorlw	8
  1915  0288  00D7               	movwf	??_uartget
  1916  0289  30D4               	movlw	212
  1917  028A  0086               	movwf	6
  1918  028B  3023               	movlw	35
  1919  028C  0087               	movwf	7
  1920  028D  0857               	movf	??_uartget,w
  1921  028E  0081               	movwf	1
  1922                           
  1923                           ;ver0.0_20140727.c: 174: putdata[14][3]=putdata[14][3]|0x01;
  1924  028F  30DF               	movlw	223
  1925  0290  0086               	movwf	6
  1926  0291  3023               	movlw	35
  1927  0292  0087               	movwf	7
  1928  0293  0801               	movf	1,w
  1929  0294  3801               	iorlw	1
  1930  0295  00D7               	movwf	??_uartget
  1931  0296  30DF               	movlw	223
  1932  0297  0086               	movwf	6
  1933  0298  3023               	movlw	35
  1934  0299  0087               	movwf	7
  1935  029A  0857               	movf	??_uartget,w
  1936  029B  0081               	movwf	1
  1937                           
  1938                           ;ver0.0_20140727.c: 175: putdata[16][3]=putdata[16][3]|0x02;
  1939  029C  30E9               	movlw	233
  1940  029D  0086               	movwf	6
  1941  029E  3023               	movlw	35
  1942  029F  0087               	movwf	7
  1943  02A0  0801               	movf	1,w
  1944  02A1  3802               	iorlw	2
  1945  02A2  00D7               	movwf	??_uartget
  1946  02A3  30E9               	movlw	233
  1947  02A4  0086               	movwf	6
  1948  02A5  3023               	movlw	35
  1949  02A6  0087               	movwf	7
  1950  02A7  0857               	movf	??_uartget,w
  1951  02A8  0081               	movwf	1
  1952  02A9  0008               	return
  1953  02AA                     __end_of_uartget:	
  1954                           
  1955                           	psect	text2
  1956  065A                     __ptext2:	
  1957 ;; *************** function _setpin *****************
  1958 ;; Defined at:
  1959 ;;		line 62 in file "sorce.c"
  1960 ;; Parameters:    Size  Location     Type
  1961 ;;		None
  1962 ;; Auto vars:     Size  Location     Type
  1963 ;;		None
  1964 ;; Return value:  Size  Location     Type
  1965 ;;		None               void
  1966 ;; Registers used:
  1967 ;;		wreg, status,2
  1968 ;; Tracked objects:
  1969 ;;		On entry : 0/0
  1970 ;;		On exit  : 0/0
  1971 ;;		Unchanged: 0/0
  1972 ;; Data sizes:     COMMON   BANK0   BANK1   BANK2   BANK3   BANK4   BANK5   BANK6   BANK7   BANK8   BANK9  BANK10  BANK1
      +1  BANK12
  1973 ;;      Params:         0       0       0       0       0       0       0       0       0       0       0       0       
      +0       0
  1974 ;;      Locals:         0       0       0       0       0       0       0       0       0       0       0       0       
      +0       0
  1975 ;;      Temps:          0       0       0       0       0       0       0       0       0       0       0       0       
      +0       0
  1976 ;;      Totals:         0       0       0       0       0       0       0       0       0       0       0       0       
      +0       0
  1977 ;;Total ram usage:        0 bytes
  1978 ;; Hardware stack levels used:    1
  1979 ;; Hardware stack levels required when called:    3
  1980 ;; This function calls:
  1981 ;;		Nothing
  1982 ;; This function is called by:
  1983 ;;		_main
  1984 ;; This function uses a non-reentrant model
  1985 ;;
  1986                           
  1987                           
  1988                           ;psect for function _setpin
  1989  065A                     _setpin:	
  1990                           
  1991                           ;sorce.c: 63: OSCCON = 0b01110000 ;
  1992                           
  1993                           ;incstack = 0
  1994                           ; Regs used in _setpin: [wreg+status,2]
  1995  065A  3070               	movlw	112
  1996  065B  0021               	movlb	1	; select bank1
  1997  065C  0099               	movwf	25	;volatile
  1998                           
  1999                           ;sorce.c: 64: ANSELA = 0b00000000 ;
  2000  065D  0023               	movlb	3	; select bank3
  2001  065E  018C               	clrf	12	;volatile
  2002                           
  2003                           ;sorce.c: 65: ANSELB = 0b00000000 ;
  2004  065F  018D               	clrf	13	;volatile
  2005                           
  2006                           ;sorce.c: 66: ANSELD = 0b00000000 ;
  2007  0660  018F               	clrf	15	;volatile
  2008                           
  2009                           ;sorce.c: 67: ANSELE = 0b00000000 ;
  2010  0661  0190               	clrf	16	;volatile
  2011                           
  2012                           ;sorce.c: 68: TRISA = 0b00000000 ;
  2013  0662  0021               	movlb	1	; select bank1
  2014  0663  018C               	clrf	12	;volatile
  2015                           
  2016                           ;sorce.c: 69: TRISB = 0b00000000 ;
  2017  0664  018D               	clrf	13	;volatile
  2018                           
  2019                           ;sorce.c: 70: TRISC = 0b10110000 ;
  2020  0665  30B0               	movlw	176
  2021  0666  008E               	movwf	14	;volatile
  2022                           
  2023                           ;sorce.c: 71: TRISD = 0b00111100 ;
  2024  0667  303C               	movlw	60
  2025  0668  008F               	movwf	15	;volatile
  2026                           
  2027                           ;sorce.c: 72: TRISE = 0X00 ;
  2028  0669  0190               	clrf	16	;volatile
  2029                           
  2030                           ;sorce.c: 74: PORTA = 0b00000000 ;
  2031  066A  0020               	movlb	0	; select bank0
  2032  066B  018C               	clrf	12	;volatile
  2033                           
  2034                           ;sorce.c: 75: PORTB = 0b00000000 ;
  2035  066C  018D               	clrf	13	;volatile
  2036                           
  2037                           ;sorce.c: 76: PORTC = 0b10000000 ;
  2038  066D  3080               	movlw	128
  2039  066E  008E               	movwf	14	;volatile
  2040                           
  2041                           ;sorce.c: 77: PORTD = 0b00000000 ;
  2042  066F  018F               	clrf	15	;volatile
  2043                           
  2044                           ;sorce.c: 78: PORTE=0x00;
  2045  0670  0190               	clrf	16	;volatile
  2046  0671  0008               	return
  2047  0672                     __end_of_setpin:	
  2048                           
  2049                           	psect	text3
  2050  04F9                     __ptext3:	
  2051 ;; *************** function _change *****************
  2052 ;; Defined at:
  2053 ;;		line 31 in file "ver0.0_20140727.c"
  2054 ;; Parameters:    Size  Location     Type
  2055 ;;		None
  2056 ;; Auto vars:     Size  Location     Type
  2057 ;;		None
  2058 ;; Return value:  Size  Location     Type
  2059 ;;		None               void
  2060 ;; Registers used:
  2061 ;;		wreg, fsr1l, fsr1h, status,2, status,0, pclath, cstack
  2062 ;; Tracked objects:
  2063 ;;		On entry : 0/0
  2064 ;;		On exit  : 0/0
  2065 ;;		Unchanged: 0/0
  2066 ;; Data sizes:     COMMON   BANK0   BANK1   BANK2   BANK3   BANK4   BANK5   BANK6   BANK7   BANK8   BANK9  BANK10  BANK1
      +1  BANK12
  2067 ;;      Params:         0       0       0       0       0       0       0       0       0       0       0       0       
      +0       0
  2068 ;;      Locals:         0       0       0       0       0       0       0       0       0       0       0       0       
      +0       0
  2069 ;;      Temps:          0       6       0       0       0       0       0       0       0       0       0       0       
      +0       0
  2070 ;;      Totals:         0       6       0       0       0       0       0       0       0       0       0       0       
      +0       0
  2071 ;;Total ram usage:        6 bytes
  2072 ;; Hardware stack levels used:    1
  2073 ;; Hardware stack levels required when called:    4
  2074 ;; This function calls:
  2075 ;;		___wmul
  2076 ;; This function is called by:
  2077 ;;		_main
  2078 ;; This function uses a non-reentrant model
  2079 ;;
  2080                           
  2081                           
  2082                           ;psect for function _change
  2083  04F9                     _change:	
  2084                           
  2085                           ;ver0.0_20140727.c: 32: ledcount++;
  2086                           
  2087                           ;incstack = 0
  2088                           ; Regs used in _change: [wreg+fsr1l+fsr1h+status,2+status,0+pclath+cstack]
  2089  04F9  3001               	movlw	1
  2090  04FA  0020               	movlb	0	; select bank0
  2091  04FB  00D7               	movwf	??_change
  2092  04FC  0857               	movf	??_change,w
  2093  04FD  07C4               	addwf	_ledcount,f
  2094                           
  2095                           ;ver0.0_20140727.c: 33: if(RD5==1)
  2096  04FE  1E8F               	btfss	15,5	;volatile
  2097  04FF  2D04               	goto	l2001
  2098                           
  2099                           ;ver0.0_20140727.c: 34: ledcount=16;
  2100  0500  3010               	movlw	16
  2101  0501  00D7               	movwf	??_change
  2102  0502  0857               	movf	??_change,w
  2103  0503  00C4               	movwf	_ledcount
  2104  0504                     l2001:	
  2105                           
  2106                           ;ver0.0_20140727.c: 36: PORTA=putdata[ledcount][0];
  2107  0504  0844               	movf	_ledcount,w
  2108  0505  00D7               	movwf	??_change
  2109  0506  01D8               	clrf	??_change+1
  2110  0507  0857               	movf	??_change,w
  2111  0508  00D1               	movwf	___wmul@multiplier
  2112  0509  0858               	movf	??_change+1,w
  2113  050A  00D2               	movwf	___wmul@multiplier+1
  2114  050B  3005               	movlw	5
  2115  050C  00D3               	movwf	___wmul@multiplicand
  2116  050D  3000               	movlw	0
  2117  050E  00D4               	movwf	___wmul@multiplicand+1
  2118  050F  3186  261F  3184   	fcall	___wmul
  2119  0512  3096               	movlw	150
  2120  0513  0020               	movlb	0	; select bank0
  2121  0514  00D9               	movwf	??_change+2
  2122  0515  3023               	movlw	35
  2123  0516  00DA               	movwf	??_change+3
  2124  0517  0851               	movf	?___wmul,w
  2125  0518  0759               	addwf	??_change+2,w
  2126  0519  0086               	movwf	6
  2127  051A  0852               	movf	?___wmul+1,w
  2128  051B  3D5A               	addwfc	??_change+3,w
  2129  051C  0087               	movwf	7
  2130  051D  0801               	movf	1,w
  2131  051E  008C               	movwf	12	;volatile
  2132                           
  2133                           ;ver0.0_20140727.c: 37: PORTB=putdata[ledcount][1];
  2134  051F  0844               	movf	_ledcount,w
  2135  0520  00D7               	movwf	??_change
  2136  0521  01D8               	clrf	??_change+1
  2137  0522  0857               	movf	??_change,w
  2138  0523  00D1               	movwf	___wmul@multiplier
  2139  0524  0858               	movf	??_change+1,w
  2140  0525  00D2               	movwf	___wmul@multiplier+1
  2141  0526  3005               	movlw	5
  2142  0527  00D3               	movwf	___wmul@multiplicand
  2143  0528  3000               	movlw	0
  2144  0529  00D4               	movwf	___wmul@multiplicand+1
  2145  052A  3186  261F  3184   	fcall	___wmul
  2146  052D  0020               	movlb	0	; select bank0
  2147  052E  0851               	movf	?___wmul,w
  2148  052F  3E01               	addlw	1
  2149  0530  00D9               	movwf	??_change+2
  2150  0531  3000               	movlw	0
  2151  0532  3D52               	addwfc	?___wmul+1,w
  2152  0533  00DA               	movwf	??_change+3
  2153  0534  3096               	movlw	150
  2154  0535  00DB               	movwf	??_change+4
  2155  0536  3023               	movlw	35
  2156  0537  00DC               	movwf	??_change+5
  2157  0538  0859               	movf	??_change+2,w
  2158  0539  075B               	addwf	??_change+4,w
  2159  053A  0086               	movwf	6
  2160  053B  085A               	movf	??_change+3,w
  2161  053C  3D5C               	addwfc	??_change+5,w
  2162  053D  0087               	movwf	7
  2163  053E  0801               	movf	1,w
  2164  053F  008D               	movwf	13	;volatile
  2165                           
  2166                           ;ver0.0_20140727.c: 38: PORTC=putdata[ledcount][2];
  2167  0540  0844               	movf	_ledcount,w
  2168  0541  00D7               	movwf	??_change
  2169  0542  01D8               	clrf	??_change+1
  2170  0543  0857               	movf	??_change,w
  2171  0544  00D1               	movwf	___wmul@multiplier
  2172  0545  0858               	movf	??_change+1,w
  2173  0546  00D2               	movwf	___wmul@multiplier+1
  2174  0547  3005               	movlw	5
  2175  0548  00D3               	movwf	___wmul@multiplicand
  2176  0549  3000               	movlw	0
  2177  054A  00D4               	movwf	___wmul@multiplicand+1
  2178  054B  3186  261F  3184   	fcall	___wmul
  2179  054E  0020               	movlb	0	; select bank0
  2180  054F  0851               	movf	?___wmul,w
  2181  0550  3E02               	addlw	2
  2182  0551  00D9               	movwf	??_change+2
  2183  0552  3000               	movlw	0
  2184  0553  3D52               	addwfc	?___wmul+1,w
  2185  0554  00DA               	movwf	??_change+3
  2186  0555  3096               	movlw	150
  2187  0556  00DB               	movwf	??_change+4
  2188  0557  3023               	movlw	35
  2189  0558  00DC               	movwf	??_change+5
  2190  0559  0859               	movf	??_change+2,w
  2191  055A  075B               	addwf	??_change+4,w
  2192  055B  0086               	movwf	6
  2193  055C  085A               	movf	??_change+3,w
  2194  055D  3D5C               	addwfc	??_change+5,w
  2195  055E  0087               	movwf	7
  2196  055F  0801               	movf	1,w
  2197  0560  008E               	movwf	14	;volatile
  2198                           
  2199                           ;ver0.0_20140727.c: 39: PORTD=putdata[ledcount][3];
  2200  0561  0844               	movf	_ledcount,w
  2201  0562  00D7               	movwf	??_change
  2202  0563  01D8               	clrf	??_change+1
  2203  0564  0857               	movf	??_change,w
  2204  0565  00D1               	movwf	___wmul@multiplier
  2205  0566  0858               	movf	??_change+1,w
  2206  0567  00D2               	movwf	___wmul@multiplier+1
  2207  0568  3005               	movlw	5
  2208  0569  00D3               	movwf	___wmul@multiplicand
  2209  056A  3000               	movlw	0
  2210  056B  00D4               	movwf	___wmul@multiplicand+1
  2211  056C  3186  261F  3184   	fcall	___wmul
  2212  056F  0020               	movlb	0	; select bank0
  2213  0570  0851               	movf	?___wmul,w
  2214  0571  3E03               	addlw	3
  2215  0572  00D9               	movwf	??_change+2
  2216  0573  3000               	movlw	0
  2217  0574  3D52               	addwfc	?___wmul+1,w
  2218  0575  00DA               	movwf	??_change+3
  2219  0576  3096               	movlw	150
  2220  0577  00DB               	movwf	??_change+4
  2221  0578  3023               	movlw	35
  2222  0579  00DC               	movwf	??_change+5
  2223  057A  0859               	movf	??_change+2,w
  2224  057B  075B               	addwf	??_change+4,w
  2225  057C  0086               	movwf	6
  2226  057D  085A               	movf	??_change+3,w
  2227  057E  3D5C               	addwfc	??_change+5,w
  2228  057F  0087               	movwf	7
  2229  0580  0801               	movf	1,w
  2230  0581  008F               	movwf	15	;volatile
  2231                           
  2232                           ;ver0.0_20140727.c: 40: PORTE=putdata[ledcount][4];
  2233  0582  0844               	movf	_ledcount,w
  2234  0583  00D7               	movwf	??_change
  2235  0584  01D8               	clrf	??_change+1
  2236  0585  0857               	movf	??_change,w
  2237  0586  00D1               	movwf	___wmul@multiplier
  2238  0587  0858               	movf	??_change+1,w
  2239  0588  00D2               	movwf	___wmul@multiplier+1
  2240  0589  3005               	movlw	5
  2241  058A  00D3               	movwf	___wmul@multiplicand
  2242  058B  3000               	movlw	0
  2243  058C  00D4               	movwf	___wmul@multiplicand+1
  2244  058D  3186  261F  3184   	fcall	___wmul
  2245  0590  0020               	movlb	0	; select bank0
  2246  0591  0851               	movf	?___wmul,w
  2247  0592  3E04               	addlw	4
  2248  0593  00D9               	movwf	??_change+2
  2249  0594  3000               	movlw	0
  2250  0595  3D52               	addwfc	?___wmul+1,w
  2251  0596  00DA               	movwf	??_change+3
  2252  0597  3096               	movlw	150
  2253  0598  00DB               	movwf	??_change+4
  2254  0599  3023               	movlw	35
  2255  059A  00DC               	movwf	??_change+5
  2256  059B  0859               	movf	??_change+2,w
  2257  059C  075B               	addwf	??_change+4,w
  2258  059D  0086               	movwf	6
  2259  059E  085A               	movf	??_change+3,w
  2260  059F  3D5C               	addwfc	??_change+5,w
  2261  05A0  0087               	movwf	7
  2262  05A1  0801               	movf	1,w
  2263  05A2  0090               	movwf	16	;volatile
  2264                           
  2265                           ;ver0.0_20140727.c: 42: if(ledcount==16)
  2266  05A3  0844               	movf	_ledcount,w
  2267  05A4  3A10               	xorlw	16
  2268  05A5  1D03               	skipz
  2269  05A6  0008               	return
  2270                           
  2271                           ;ver0.0_20140727.c: 43: ledcount=0;
  2272  05A7  01C4               	clrf	_ledcount
  2273  05A8  0008               	return
  2274  05A9                     __end_of_change:	
  2275                           
  2276                           	psect	text4
  2277  061F                     __ptext4:	
  2278 ;; *************** function ___wmul *****************
  2279 ;; Defined at:
  2280 ;;		line 15 in file "/Applications/microchip/xc8/v1.32/sources/common/Umul16.c"
  2281 ;; Parameters:    Size  Location     Type
  2282 ;;  multiplier      2   10[BANK0 ] unsigned int 
  2283 ;;  multiplicand    2   12[BANK0 ] unsigned int 
  2284 ;; Auto vars:     Size  Location     Type
  2285 ;;  product         2   14[BANK0 ] unsigned int 
  2286 ;; Return value:  Size  Location     Type
  2287 ;;                  2   10[BANK0 ] unsigned int 
  2288 ;; Registers used:
  2289 ;;		wreg, status,2, status,0
  2290 ;; Tracked objects:
  2291 ;;		On entry : 0/0
  2292 ;;		On exit  : 0/0
  2293 ;;		Unchanged: 0/0
  2294 ;; Data sizes:     COMMON   BANK0   BANK1   BANK2   BANK3   BANK4   BANK5   BANK6   BANK7   BANK8   BANK9  BANK10  BANK1
      +1  BANK12
  2295 ;;      Params:         0       4       0       0       0       0       0       0       0       0       0       0       
      +0       0
  2296 ;;      Locals:         0       2       0       0       0       0       0       0       0       0       0       0       
      +0       0
  2297 ;;      Temps:          0       0       0       0       0       0       0       0       0       0       0       0       
      +0       0
  2298 ;;      Totals:         0       6       0       0       0       0       0       0       0       0       0       0       
      +0       0
  2299 ;;Total ram usage:        6 bytes
  2300 ;; Hardware stack levels used:    1
  2301 ;; Hardware stack levels required when called:    3
  2302 ;; This function calls:
  2303 ;;		Nothing
  2304 ;; This function is called by:
  2305 ;;		_change
  2306 ;;		_uartget
  2307 ;; This function uses a non-reentrant model
  2308 ;;
  2309                           
  2310                           
  2311                           ;psect for function ___wmul
  2312  061F                     ___wmul:	
  2313                           
  2314                           ;incstack = 0
  2315                           ; Regs used in ___wmul: [wreg+status,2+status,0]
  2316  061F  0020               	movlb	0	; select bank0
  2317  0620  01D5               	clrf	___wmul@product
  2318  0621  01D6               	clrf	___wmul@product+1
  2319  0622                     l1963:	
  2320  0622  1C51               	btfss	___wmul@multiplier,0
  2321  0623  2E28               	goto	l394
  2322  0624  0853               	movf	___wmul@multiplicand,w
  2323  0625  07D5               	addwf	___wmul@product,f
  2324  0626  0854               	movf	___wmul@multiplicand+1,w
  2325  0627  3DD6               	addwfc	___wmul@product+1,f
  2326  0628                     l394:	
  2327  0628  3001               	movlw	1
  2328  0629                     u1765:	
  2329  0629  35D3               	lslf	___wmul@multiplicand,f
  2330  062A  0DD4               	rlf	___wmul@multiplicand+1,f
  2331  062B  0B89               	decfsz	9,f
  2332  062C  2E29               	goto	u1765
  2333  062D  3001               	movlw	1
  2334  062E                     u1775:	
  2335  062E  36D2               	lsrf	___wmul@multiplier+1,f
  2336  062F  0CD1               	rrf	___wmul@multiplier,f
  2337  0630  0B89               	decfsz	9,f
  2338  0631  2E2E               	goto	u1775
  2339  0632  0852               	movf	___wmul@multiplier+1,w
  2340  0633  0451               	iorwf	___wmul@multiplier,w
  2341  0634  1D03               	skipz
  2342  0635  2E22               	goto	l1963
  2343  0636  0856               	movf	___wmul@product+1,w
  2344  0637  01D2               	clrf	?___wmul+1
  2345  0638  07D2               	addwf	?___wmul+1,f
  2346  0639  0855               	movf	___wmul@product,w
  2347  063A  01D1               	clrf	?___wmul
  2348  063B  07D1               	addwf	?___wmul,f
  2349  063C  0008               	return
  2350  063D                     __end_of___wmul:	
  2351                           
  2352                           	psect	text5
  2353  0682                     __ptext5:	
  2354 ;; *************** function _E2promRead *****************
  2355 ;; Defined at:
  2356 ;;		line 201 in file "ver0.0_20140727.c"
  2357 ;; Parameters:    Size  Location     Type
  2358 ;;  adr             1    wreg     unsigned char 
  2359 ;; Auto vars:     Size  Location     Type
  2360 ;;  adr             1   12[BANK0 ] unsigned char 
  2361 ;; Return value:  Size  Location     Type
  2362 ;;                  1    wreg      unsigned char 
  2363 ;; Registers used:
  2364 ;;		wreg
  2365 ;; Tracked objects:
  2366 ;;		On entry : 0/0
  2367 ;;		On exit  : 0/0
  2368 ;;		Unchanged: 0/0
  2369 ;; Data sizes:     COMMON   BANK0   BANK1   BANK2   BANK3   BANK4   BANK5   BANK6   BANK7   BANK8   BANK9  BANK10  BANK1
      +1  BANK12
  2370 ;;      Params:         0       0       0       0       0       0       0       0       0       0       0       0       
      +0       0
  2371 ;;      Locals:         0       1       0       0       0       0       0       0       0       0       0       0       
      +0       0
  2372 ;;      Temps:          0       2       0       0       0       0       0       0       0       0       0       0       
      +0       0
  2373 ;;      Totals:         0       3       0       0       0       0       0       0       0       0       0       0       
      +0       0
  2374 ;;Total ram usage:        3 bytes
  2375 ;; Hardware stack levels used:    1
  2376 ;; Hardware stack levels required when called:    3
  2377 ;; This function calls:
  2378 ;;		Nothing
  2379 ;; This function is called by:
  2380 ;;		_main
  2381 ;; This function uses a non-reentrant model
  2382 ;;
  2383                           
  2384                           
  2385                           ;psect for function _E2promRead
  2386  0682                     _E2promRead:	
  2387                           
  2388                           ;incstack = 0
  2389                           ; Regs used in _E2promRead: [wreg]
  2390                           ;E2promRead@adr stored from wreg
  2391  0682  0020               	movlb	0	; select bank0
  2392  0683  00D3               	movwf	E2promRead@adr
  2393                           
  2394                           ;ver0.0_20140727.c: 203: EEADR = adr;
  2395  0684  0853               	movf	E2promRead@adr,w
  2396  0685  00D1               	movwf	??_E2promRead
  2397  0686  01D2               	clrf	??_E2promRead+1
  2398  0687  0851               	movf	??_E2promRead,w
  2399  0688  0023               	movlb	3	; select bank3
  2400  0689  0091               	movwf	17	;volatile
  2401  068A  0020               	movlb	0	; select bank0
  2402  068B  0852               	movf	??_E2promRead+1,w
  2403  068C  0023               	movlb	3	; select bank3
  2404  068D  0092               	movwf	18	;volatile
  2405                           
  2406                           ;ver0.0_20140727.c: 204: RD = 1;
  2407  068E  1415               	bsf	21,0	;volsfr
  2408                           
  2409                           ;ver0.0_20140727.c: 205: return( EEDATA );
  2410  068F  0813               	movf	19,w	;volatile
  2411  0690  0008               	return
  2412  0691                     __end_of_E2promRead:	
  2413                           
  2414                           	psect	intentry
  2415  0004                     __pintentry:	
  2416 ;; *************** function _InterTimer *****************
  2417 ;; Defined at:
  2418 ;;		line 181 in file "ver0.0_20140727.c"
  2419 ;; Parameters:    Size  Location     Type
  2420 ;;		None
  2421 ;; Auto vars:     Size  Location     Type
  2422 ;;		None
  2423 ;; Return value:  Size  Location     Type
  2424 ;;		None               void
  2425 ;; Registers used:
  2426 ;;		wreg, fsr1l, fsr1h, status,2, status,0, pclath, cstack
  2427 ;; Tracked objects:
  2428 ;;		On entry : 0/0
  2429 ;;		On exit  : 0/0
  2430 ;;		Unchanged: 0/0
  2431 ;; Data sizes:     COMMON   BANK0   BANK1   BANK2   BANK3   BANK4   BANK5   BANK6   BANK7   BANK8   BANK9  BANK10  BANK1
      +1  BANK12
  2432 ;;      Params:         0       0       0       0       0       0       0       0       0       0       0       0       
      +0       0
  2433 ;;      Locals:         0       0       0       0       0       0       0       0       0       0       0       0       
      +0       0
  2434 ;;      Temps:          1       0       0       0       0       0       0       0       0       0       0       0       
      +0       0
  2435 ;;      Totals:         1       0       0       0       0       0       0       0       0       0       0       0       
      +0       0
  2436 ;;Total ram usage:        1 bytes
  2437 ;; Hardware stack levels used:    1
  2438 ;; Hardware stack levels required when called:    2
  2439 ;; This function calls:
  2440 ;;		i1_uartget
  2441 ;; This function is called by:
  2442 ;;		Interrupt level 1
  2443 ;; This function uses a non-reentrant model
  2444 ;;
  2445                           
  2446  0004                     _InterTimer:	
  2447                           
  2448                           ;incstack = 0
  2449                           ; Regs used in _InterTimer: [wreg+fsr1l+fsr1h+status,2+status,0+pclath+cstack]
  2450  0004  147E               	bsf	126,0	;set compiler interrupt flag
  2451  0005  3180               	pagesel	$
  2452  0006  0020               	movlb	0	; select bank0
  2453  0007  087F               	movf	127,w
  2454  0008  00F6               	movwf	??_InterTimer
  2455                           
  2456                           ;ver0.0_20140727.c: 183: if (TMR0IF == 1) {
  2457  0009  1D0B               	btfss	11,2	;volatile
  2458  000A  2816               	goto	i1l248
  2459                           
  2460                           ;ver0.0_20140727.c: 184: TMR0 = 61 ;
  2461  000B  303D               	movlw	61
  2462  000C  0095               	movwf	21	;volatile
  2463                           
  2464                           ;ver0.0_20140727.c: 185: uartget();
  2465  000D  3182  22AA  3180   	fcall	i1_uartget
  2466                           
  2467                           ;ver0.0_20140727.c: 186: if(RCIF)
  2468  0010  0020               	movlb	0	; select bank0
  2469  0011  1E91               	btfss	17,5	;volatile
  2470  0012  2815               	goto	i1l247
  2471                           
  2472                           ;ver0.0_20140727.c: 187: reservingNow=1;
  2473  0013  01FA               	clrf	_reservingNow
  2474  0014  0AFA               	incf	_reservingNow,f
  2475  0015                     i1l247:	
  2476                           
  2477                           ;ver0.0_20140727.c: 189: TMR0IF = 0 ;
  2478  0015  110B               	bcf	11,2	;volatile
  2479  0016                     i1l248:	
  2480  0016  0876               	movf	??_InterTimer,w
  2481  0017  00FF               	movwf	127
  2482  0018  107E               	bcf	126,0	;clear compiler interrupt flag
  2483  0019  0009               	retfie
  2484  001A                     __end_of_InterTimer:	
  2485                           
  2486                           	psect	text7
  2487  02AA                     __ptext7:	
  2488 ;; *************** function i1_uartget *****************
  2489 ;; Defined at:
  2490 ;;		line 45 in file "ver0.0_20140727.c"
  2491 ;; Parameters:    Size  Location     Type
  2492 ;;		None
  2493 ;; Auto vars:     Size  Location     Type
  2494 ;;		None
  2495 ;; Return value:  Size  Location     Type
  2496 ;;		None               void
  2497 ;; Registers used:
  2498 ;;		wreg, fsr1l, fsr1h, status,2, status,0, pclath, cstack
  2499 ;; Tracked objects:
  2500 ;;		On entry : 0/0
  2501 ;;		On exit  : 0/0
  2502 ;;		Unchanged: 0/0
  2503 ;; Data sizes:     COMMON   BANK0   BANK1   BANK2   BANK3   BANK4   BANK5   BANK6   BANK7   BANK8   BANK9  BANK10  BANK1
      +1  BANK12
  2504 ;;      Params:         0       0       0       0       0       0       0       0       0       0       0       0       
      +0       0
  2505 ;;      Locals:         0       0       0       0       0       0       0       0       0       0       0       0       
      +0       0
  2506 ;;      Temps:          0      10       0       0       0       0       0       0       0       0       0       0       
      +0       0
  2507 ;;      Totals:         0      10       0       0       0       0       0       0       0       0       0       0       
      +0       0
  2508 ;;Total ram usage:       10 bytes
  2509 ;; Hardware stack levels used:    1
  2510 ;; Hardware stack levels required when called:    1
  2511 ;; This function calls:
  2512 ;;		i1___wmul
  2513 ;; This function is called by:
  2514 ;;		_InterTimer
  2515 ;; This function uses a non-reentrant model
  2516 ;;
  2517                           
  2518                           
  2519                           ;psect for function i1_uartget
  2520  02AA                     i1_uartget:	
  2521                           
  2522                           ;ver0.0_20140727.c: 81: gettingSuccess=2;
  2523                           
  2524                           ;incstack = 0
  2525                           ; Regs used in i1_uartget: [wreg+fsr1l+fsr1h+status,2+status,0+pclath+cstack]
  2526  02AA  3002               	movlw	2
  2527  02AB  0020               	movlb	0	; select bank0
  2528  02AC  00C7               	movwf	??i1_uartget
  2529  02AD  0847               	movf	??i1_uartget,w
  2530  02AE  00E3               	movwf	_gettingSuccess
  2531                           
  2532                           ;ver0.0_20140727.c: 83: getdata[0]= 0x51 ;
  2533  02AF  3051               	movlw	81
  2534  02B0  00C7               	movwf	??i1_uartget
  2535  02B1  0847               	movf	??i1_uartget,w
  2536  02B2  0021               	movlb	1	; select bank1
  2537  02B3  00A0               	movwf	_getdata^(0+128)
  2538                           
  2539                           ;ver0.0_20140727.c: 84: getdata[1]= 0x8F ;
  2540  02B4  308F               	movlw	143
  2541  02B5  0020               	movlb	0	; select bank0
  2542  02B6  00C7               	movwf	??i1_uartget
  2543  02B7  0847               	movf	??i1_uartget,w
  2544  02B8  0021               	movlb	1	; select bank1
  2545  02B9  00A1               	movwf	(_getdata^(0+128)+1)
  2546                           
  2547                           ;ver0.0_20140727.c: 85: getdata[2]= 0x3F ;
  2548  02BA  303F               	movlw	63
  2549  02BB  0020               	movlb	0	; select bank0
  2550  02BC  00C7               	movwf	??i1_uartget
  2551  02BD  0847               	movf	??i1_uartget,w
  2552  02BE  0021               	movlb	1	; select bank1
  2553  02BF  00A2               	movwf	(_getdata^(0+128)+2)
  2554                           
  2555                           ;ver0.0_20140727.c: 86: getdata[3]= 0x8 ;
  2556  02C0  3008               	movlw	8
  2557  02C1  0020               	movlb	0	; select bank0
  2558  02C2  00C7               	movwf	??i1_uartget
  2559  02C3  0847               	movf	??i1_uartget,w
  2560  02C4  0021               	movlb	1	; select bank1
  2561  02C5  00A3               	movwf	(_getdata^(0+128)+3)
  2562                           
  2563                           ;ver0.0_20140727.c: 87: getdata[4]= 0x40 ;
  2564  02C6  3040               	movlw	64
  2565  02C7  0020               	movlb	0	; select bank0
  2566  02C8  00C7               	movwf	??i1_uartget
  2567  02C9  0847               	movf	??i1_uartget,w
  2568  02CA  0021               	movlb	1	; select bank1
  2569  02CB  00A4               	movwf	(_getdata^(0+128)+4)
  2570                           
  2571                           ;ver0.0_20140727.c: 88: getdata[5]= 0x0 ;
  2572  02CC  01A5               	clrf	(_getdata^(0+128)+5)
  2573                           
  2574                           ;ver0.0_20140727.c: 89: getdata[6]= 0x0 ;
  2575  02CD  01A6               	clrf	(_getdata^(0+128)+6)
  2576                           
  2577                           ;ver0.0_20140727.c: 90: getdata[7]= 0x18 ;
  2578  02CE  3018               	movlw	24
  2579  02CF  0020               	movlb	0	; select bank0
  2580  02D0  00C7               	movwf	??i1_uartget
  2581  02D1  0847               	movf	??i1_uartget,w
  2582  02D2  0021               	movlb	1	; select bank1
  2583  02D3  00A7               	movwf	(_getdata^(0+128)+7)
  2584                           
  2585                           ;ver0.0_20140727.c: 91: getdata[8]= 0x48 ;
  2586  02D4  3048               	movlw	72
  2587  02D5  0020               	movlb	0	; select bank0
  2588  02D6  00C7               	movwf	??i1_uartget
  2589  02D7  0847               	movf	??i1_uartget,w
  2590  02D8  0021               	movlb	1	; select bank1
  2591  02D9  00A8               	movwf	(_getdata^(0+128)+8)
  2592                           
  2593                           ;ver0.0_20140727.c: 92: getdata[9]= 0x0 ;
  2594  02DA  01A9               	clrf	(_getdata^(0+128)+9)
  2595                           
  2596                           ;ver0.0_20140727.c: 93: getdata[10]= 0x0 ;
  2597  02DB  01AA               	clrf	(_getdata^(0+128)+10)
  2598                           
  2599                           ;ver0.0_20140727.c: 94: getdata[11]= 0x8 ;
  2600  02DC  3008               	movlw	8
  2601  02DD  0020               	movlb	0	; select bank0
  2602  02DE  00C7               	movwf	??i1_uartget
  2603  02DF  0847               	movf	??i1_uartget,w
  2604  02E0  0021               	movlb	1	; select bank1
  2605  02E1  00AB               	movwf	(_getdata^(0+128)+11)
  2606                           
  2607                           ;ver0.0_20140727.c: 95: getdata[12]= 0x40 ;
  2608  02E2  3040               	movlw	64
  2609  02E3  0020               	movlb	0	; select bank0
  2610  02E4  00C7               	movwf	??i1_uartget
  2611  02E5  0847               	movf	??i1_uartget,w
  2612  02E6  0021               	movlb	1	; select bank1
  2613  02E7  00AC               	movwf	(_getdata^(0+128)+12)
  2614                           
  2615                           ;ver0.0_20140727.c: 96: getdata[13]= 0x0 ;
  2616  02E8  01AD               	clrf	(_getdata^(0+128)+13)
  2617                           
  2618                           ;ver0.0_20140727.c: 97: getdata[14]= 0x0 ;
  2619  02E9  01AE               	clrf	(_getdata^(0+128)+14)
  2620                           
  2621                           ;ver0.0_20140727.c: 98: getdata[15]= 0x28 ;
  2622  02EA  3028               	movlw	40
  2623  02EB  0020               	movlb	0	; select bank0
  2624  02EC  00C7               	movwf	??i1_uartget
  2625  02ED  0847               	movf	??i1_uartget,w
  2626  02EE  0021               	movlb	1	; select bank1
  2627  02EF  00AF               	movwf	(_getdata^(0+128)+15)
  2628                           
  2629                           ;ver0.0_20140727.c: 99: getdata[16]= 0x44 ;
  2630  02F0  3044               	movlw	68
  2631  02F1  0020               	movlb	0	; select bank0
  2632  02F2  00C7               	movwf	??i1_uartget
  2633  02F3  0847               	movf	??i1_uartget,w
  2634  02F4  0021               	movlb	1	; select bank1
  2635  02F5  00B0               	movwf	(_getdata^(0+128)+16)
  2636                           
  2637                           ;ver0.0_20140727.c: 100: getdata[17]= 0x0 ;
  2638  02F6  01B1               	clrf	(_getdata^(0+128)+17)
  2639                           
  2640                           ;ver0.0_20140727.c: 101: getdata[18]= 0x0 ;
  2641  02F7  01B2               	clrf	(_getdata^(0+128)+18)
  2642                           
  2643                           ;ver0.0_20140727.c: 102: getdata[19]= 0x8 ;
  2644  02F8  3008               	movlw	8
  2645  02F9  0020               	movlb	0	; select bank0
  2646  02FA  00C7               	movwf	??i1_uartget
  2647  02FB  0847               	movf	??i1_uartget,w
  2648  02FC  0021               	movlb	1	; select bank1
  2649  02FD  00B3               	movwf	(_getdata^(0+128)+19)
  2650                           
  2651                           ;ver0.0_20140727.c: 103: getdata[20]= 0x40 ;
  2652  02FE  3040               	movlw	64
  2653  02FF  0020               	movlb	0	; select bank0
  2654  0300  00C7               	movwf	??i1_uartget
  2655  0301  0847               	movf	??i1_uartget,w
  2656  0302  0021               	movlb	1	; select bank1
  2657  0303  00B4               	movwf	(_getdata^(0+128)+20)
  2658                           
  2659                           ;ver0.0_20140727.c: 104: getdata[21]= 0x0 ;
  2660  0304  01B5               	clrf	(_getdata^(0+128)+21)
  2661                           
  2662                           ;ver0.0_20140727.c: 105: getdata[22]= 0x0 ;
  2663  0305  01B6               	clrf	(_getdata^(0+128)+22)
  2664                           
  2665                           ;ver0.0_20140727.c: 106: getdata[23]= 0x48 ;
  2666  0306  3048               	movlw	72
  2667  0307  0020               	movlb	0	; select bank0
  2668  0308  00C7               	movwf	??i1_uartget
  2669  0309  0847               	movf	??i1_uartget,w
  2670  030A  0021               	movlb	1	; select bank1
  2671  030B  00B7               	movwf	(_getdata^(0+128)+23)
  2672                           
  2673                           ;ver0.0_20140727.c: 107: getdata[24]= 0x42 ;
  2674  030C  3042               	movlw	66
  2675  030D  0020               	movlb	0	; select bank0
  2676  030E  00C7               	movwf	??i1_uartget
  2677  030F  0847               	movf	??i1_uartget,w
  2678  0310  0021               	movlb	1	; select bank1
  2679  0311  00B8               	movwf	(_getdata^(0+128)+24)
  2680                           
  2681                           ;ver0.0_20140727.c: 108: getdata[25]= 0x0 ;
  2682  0312  01B9               	clrf	(_getdata^(0+128)+25)
  2683                           
  2684                           ;ver0.0_20140727.c: 109: getdata[26]= 0x0 ;
  2685  0313  01BA               	clrf	(_getdata^(0+128)+26)
  2686                           
  2687                           ;ver0.0_20140727.c: 110: getdata[27]= 0x8 ;
  2688  0314  3008               	movlw	8
  2689  0315  0020               	movlb	0	; select bank0
  2690  0316  00C7               	movwf	??i1_uartget
  2691  0317  0847               	movf	??i1_uartget,w
  2692  0318  0021               	movlb	1	; select bank1
  2693  0319  00BB               	movwf	(_getdata^(0+128)+27)
  2694                           
  2695                           ;ver0.0_20140727.c: 111: getdata[28]= 0x7F ;
  2696  031A  307F               	movlw	127
  2697  031B  0020               	movlb	0	; select bank0
  2698  031C  00C7               	movwf	??i1_uartget
  2699  031D  0847               	movf	??i1_uartget,w
  2700  031E  0021               	movlb	1	; select bank1
  2701  031F  00BC               	movwf	(_getdata^(0+128)+28)
  2702                           
  2703                           ;ver0.0_20140727.c: 112: getdata[29]= 0xFF ;
  2704  0320  30FF               	movlw	255
  2705  0321  0020               	movlb	0	; select bank0
  2706  0322  00C7               	movwf	??i1_uartget
  2707  0323  0847               	movf	??i1_uartget,w
  2708  0324  0021               	movlb	1	; select bank1
  2709  0325  00BD               	movwf	(_getdata^(0+128)+29)
  2710                           
  2711                           ;ver0.0_20140727.c: 113: getdata[30]= 0x3F ;
  2712  0326  303F               	movlw	63
  2713  0327  0020               	movlb	0	; select bank0
  2714  0328  00C7               	movwf	??i1_uartget
  2715  0329  0847               	movf	??i1_uartget,w
  2716  032A  0021               	movlb	1	; select bank1
  2717  032B  00BE               	movwf	(_getdata^(0+128)+30)
  2718                           
  2719                           ;ver0.0_20140727.c: 114: getdata[31]= 0xFF ;
  2720  032C  30FF               	movlw	255
  2721  032D  0020               	movlb	0	; select bank0
  2722  032E  00C7               	movwf	??i1_uartget
  2723  032F  0847               	movf	??i1_uartget,w
  2724  0330  0021               	movlb	1	; select bank1
  2725  0331  00BF               	movwf	(_getdata^(0+128)+31)
  2726                           
  2727                           ;ver0.0_20140727.c: 115: getdata[32]= 0x7F ;
  2728  0332  307F               	movlw	127
  2729  0333  0020               	movlb	0	; select bank0
  2730  0334  00C7               	movwf	??i1_uartget
  2731  0335  0847               	movf	??i1_uartget,w
  2732  0336  0021               	movlb	1	; select bank1
  2733  0337  00C0               	movwf	(_getdata^(0+128)+32)
  2734                           
  2735                           ;ver0.0_20140727.c: 116: getdata[33]= 0xFF ;
  2736  0338  30FF               	movlw	255
  2737  0339  0020               	movlb	0	; select bank0
  2738  033A  00C7               	movwf	??i1_uartget
  2739  033B  0847               	movf	??i1_uartget,w
  2740  033C  0021               	movlb	1	; select bank1
  2741  033D  00C1               	movwf	(_getdata^(0+128)+33)
  2742                           
  2743                           ;ver0.0_20140727.c: 117: getdata[34]= 0x3F ;
  2744  033E  303F               	movlw	63
  2745  033F  0020               	movlb	0	; select bank0
  2746  0340  00C7               	movwf	??i1_uartget
  2747  0341  0847               	movf	??i1_uartget,w
  2748  0342  0021               	movlb	1	; select bank1
  2749  0343  00C2               	movwf	(_getdata^(0+128)+34)
  2750                           
  2751                           ;ver0.0_20140727.c: 118: getdata[35]= 0xFF ;
  2752  0344  30FF               	movlw	255
  2753  0345  0020               	movlb	0	; select bank0
  2754  0346  00C7               	movwf	??i1_uartget
  2755  0347  0847               	movf	??i1_uartget,w
  2756  0348  0021               	movlb	1	; select bank1
  2757  0349  00C3               	movwf	(_getdata^(0+128)+35)
  2758                           
  2759                           ;ver0.0_20140727.c: 119: getdata[36]= 0x40 ;
  2760  034A  3040               	movlw	64
  2761  034B  0020               	movlb	0	; select bank0
  2762  034C  00C7               	movwf	??i1_uartget
  2763  034D  0847               	movf	??i1_uartget,w
  2764  034E  0021               	movlb	1	; select bank1
  2765  034F  00C4               	movwf	(_getdata^(0+128)+36)
  2766                           
  2767                           ;ver0.0_20140727.c: 120: getdata[37]= 0x0 ;
  2768  0350  01C5               	clrf	(_getdata^(0+128)+37)
  2769                           
  2770                           ;ver0.0_20140727.c: 121: getdata[38]= 0x0 ;
  2771  0351  01C6               	clrf	(_getdata^(0+128)+38)
  2772                           
  2773                           ;ver0.0_20140727.c: 122: getdata[39]= 0x8 ;
  2774  0352  3008               	movlw	8
  2775  0353  0020               	movlb	0	; select bank0
  2776  0354  00C7               	movwf	??i1_uartget
  2777  0355  0847               	movf	??i1_uartget,w
  2778  0356  0021               	movlb	1	; select bank1
  2779  0357  00C7               	movwf	(_getdata^(0+128)+39)
  2780                           
  2781                           ;ver0.0_20140727.c: 123: getdata[40]= 0x40 ;
  2782  0358  3040               	movlw	64
  2783  0359  0020               	movlb	0	; select bank0
  2784  035A  00C7               	movwf	??i1_uartget
  2785  035B  0847               	movf	??i1_uartget,w
  2786  035C  0021               	movlb	1	; select bank1
  2787  035D  00C8               	movwf	(_getdata^(0+128)+40)
  2788                           
  2789                           ;ver0.0_20140727.c: 124: getdata[41]= 0x0 ;
  2790  035E  01C9               	clrf	(_getdata^(0+128)+41)
  2791                           
  2792                           ;ver0.0_20140727.c: 125: getdata[42]= 0x0 ;
  2793  035F  01CA               	clrf	(_getdata^(0+128)+42)
  2794                           
  2795                           ;ver0.0_20140727.c: 126: getdata[43]= 0x8 ;
  2796  0360  3008               	movlw	8
  2797  0361  0020               	movlb	0	; select bank0
  2798  0362  00C7               	movwf	??i1_uartget
  2799  0363  0847               	movf	??i1_uartget,w
  2800  0364  0021               	movlb	1	; select bank1
  2801  0365  00CB               	movwf	(_getdata^(0+128)+43)
  2802                           
  2803                           ;ver0.0_20140727.c: 127: getdata[44]= 0x40 ;
  2804  0366  3040               	movlw	64
  2805  0367  0020               	movlb	0	; select bank0
  2806  0368  00C7               	movwf	??i1_uartget
  2807  0369  0847               	movf	??i1_uartget,w
  2808  036A  0021               	movlb	1	; select bank1
  2809  036B  00CC               	movwf	(_getdata^(0+128)+44)
  2810                           
  2811                           ;ver0.0_20140727.c: 128: getdata[45]= 0x0 ;
  2812  036C  01CD               	clrf	(_getdata^(0+128)+45)
  2813                           
  2814                           ;ver0.0_20140727.c: 129: getdata[46]= 0x0 ;
  2815  036D  01CE               	clrf	(_getdata^(0+128)+46)
  2816                           
  2817                           ;ver0.0_20140727.c: 130: getdata[47]= 0x8 ;
  2818  036E  3008               	movlw	8
  2819  036F  0020               	movlb	0	; select bank0
  2820  0370  00C7               	movwf	??i1_uartget
  2821  0371  0847               	movf	??i1_uartget,w
  2822  0372  0021               	movlb	1	; select bank1
  2823  0373  00CF               	movwf	(_getdata^(0+128)+47)
  2824                           
  2825                           ;ver0.0_20140727.c: 131: getdata[48]= 0x40 ;
  2826  0374  3040               	movlw	64
  2827  0375  0020               	movlb	0	; select bank0
  2828  0376  00C7               	movwf	??i1_uartget
  2829  0377  0847               	movf	??i1_uartget,w
  2830  0378  0021               	movlb	1	; select bank1
  2831  0379  00D0               	movwf	(_getdata^(0+128)+48)
  2832                           
  2833                           ;ver0.0_20140727.c: 132: getdata[49]= 0x0 ;
  2834  037A  01D1               	clrf	(_getdata^(0+128)+49)
  2835                           
  2836                           ;ver0.0_20140727.c: 133: getdata[50]= 0x0 ;
  2837  037B  01D2               	clrf	(_getdata^(0+128)+50)
  2838                           
  2839                           ;ver0.0_20140727.c: 134: getdata[51]= 0x8 ;
  2840  037C  3008               	movlw	8
  2841  037D  0020               	movlb	0	; select bank0
  2842  037E  00C7               	movwf	??i1_uartget
  2843  037F  0847               	movf	??i1_uartget,w
  2844  0380  0021               	movlb	1	; select bank1
  2845  0381  00D3               	movwf	(_getdata^(0+128)+51)
  2846                           
  2847                           ;ver0.0_20140727.c: 135: getdata[52]= 0x40 ;
  2848  0382  3040               	movlw	64
  2849  0383  0020               	movlb	0	; select bank0
  2850  0384  00C7               	movwf	??i1_uartget
  2851  0385  0847               	movf	??i1_uartget,w
  2852  0386  0021               	movlb	1	; select bank1
  2853  0387  00D4               	movwf	(_getdata^(0+128)+52)
  2854                           
  2855                           ;ver0.0_20140727.c: 136: getdata[53]= 0x0 ;
  2856  0388  01D5               	clrf	(_getdata^(0+128)+53)
  2857                           
  2858                           ;ver0.0_20140727.c: 137: getdata[54]= 0x0 ;
  2859  0389  01D6               	clrf	(_getdata^(0+128)+54)
  2860                           
  2861                           ;ver0.0_20140727.c: 138: getdata[55]= 0x8 ;
  2862  038A  3008               	movlw	8
  2863  038B  0020               	movlb	0	; select bank0
  2864  038C  00C7               	movwf	??i1_uartget
  2865  038D  0847               	movf	??i1_uartget,w
  2866  038E  0021               	movlb	1	; select bank1
  2867  038F  00D7               	movwf	(_getdata^(0+128)+55)
  2868                           
  2869                           ;ver0.0_20140727.c: 139: getdata[56]= 0x40 ;
  2870  0390  3040               	movlw	64
  2871  0391  0020               	movlb	0	; select bank0
  2872  0392  00C7               	movwf	??i1_uartget
  2873  0393  0847               	movf	??i1_uartget,w
  2874  0394  0021               	movlb	1	; select bank1
  2875  0395  00D8               	movwf	(_getdata^(0+128)+56)
  2876                           
  2877                           ;ver0.0_20140727.c: 140: getdata[57]= 0x0 ;
  2878  0396  01D9               	clrf	(_getdata^(0+128)+57)
  2879                           
  2880                           ;ver0.0_20140727.c: 141: getdata[58]= 0x0 ;
  2881  0397  01DA               	clrf	(_getdata^(0+128)+58)
  2882                           
  2883                           ;ver0.0_20140727.c: 142: getdata[59]= 0x8 ;
  2884  0398  3008               	movlw	8
  2885  0399  0020               	movlb	0	; select bank0
  2886  039A  00C7               	movwf	??i1_uartget
  2887  039B  0847               	movf	??i1_uartget,w
  2888  039C  0021               	movlb	1	; select bank1
  2889  039D  00DB               	movwf	(_getdata^(0+128)+59)
  2890                           
  2891                           ;ver0.0_20140727.c: 143: getdata[60]= 0x41 ;
  2892  039E  3041               	movlw	65
  2893  039F  0020               	movlb	0	; select bank0
  2894  03A0  00C7               	movwf	??i1_uartget
  2895  03A1  0847               	movf	??i1_uartget,w
  2896  03A2  0021               	movlb	1	; select bank1
  2897  03A3  00DC               	movwf	(_getdata^(0+128)+60)
  2898                           
  2899                           ;ver0.0_20140727.c: 144: getdata[61]= 0x8F ;
  2900  03A4  308F               	movlw	143
  2901  03A5  0020               	movlb	0	; select bank0
  2902  03A6  00C7               	movwf	??i1_uartget
  2903  03A7  0847               	movf	??i1_uartget,w
  2904  03A8  0021               	movlb	1	; select bank1
  2905  03A9  00DD               	movwf	(_getdata^(0+128)+61)
  2906                           
  2907                           ;ver0.0_20140727.c: 145: getdata[62]= 0x3F ;
  2908  03AA  303F               	movlw	63
  2909  03AB  0020               	movlb	0	; select bank0
  2910  03AC  00C7               	movwf	??i1_uartget
  2911  03AD  0847               	movf	??i1_uartget,w
  2912  03AE  0021               	movlb	1	; select bank1
  2913  03AF  00DE               	movwf	(_getdata^(0+128)+62)
  2914                           
  2915                           ;ver0.0_20140727.c: 146: getdata[63]= 0x8 ;
  2916  03B0  3008               	movlw	8
  2917  03B1  0020               	movlb	0	; select bank0
  2918  03B2  00C7               	movwf	??i1_uartget
  2919  03B3  0847               	movf	??i1_uartget,w
  2920  03B4  0021               	movlb	1	; select bank1
  2921  03B5  00DF               	movwf	(_getdata^(0+128)+63)
  2922                           
  2923                           ;ver0.0_20140727.c: 153: if(gettingSuccess==2){
  2924  03B6  0020               	movlb	0	; select bank0
  2925  03B7  0863               	movf	_gettingSuccess,w
  2926  03B8  3A02               	xorlw	2
  2927  03B9  1D03               	skipz
  2928  03BA  0008               	return
  2929                           
  2930                           ;ver0.0_20140727.c: 154: for(i=1;i<17;i++){
  2931  03BB  01C2               	clrf	_i
  2932  03BC  0AC2               	incf	_i,f
  2933  03BD  3011               	movlw	17
  2934  03BE  0242               	subwf	_i,w
  2935  03BF  1803               	btfsc	3,0
  2936  03C0  2BFA               	goto	i1l238
  2937  03C1                     i1l1607:	
  2938                           
  2939                           ;ver0.0_20140727.c: 155: for(j=0;j<2;j++){
  2940  03C1  01C3               	clrf	_j
  2941  03C2  3002               	movlw	2
  2942  03C3  0243               	subwf	_j,w
  2943  03C4  1803               	btfsc	3,0
  2944  03C5  2BF2               	goto	i1l1621
  2945  03C6                     i1l1613:	
  2946                           
  2947                           ;ver0.0_20140727.c: 156: n=(i-1)*4+(j+2);
  2948  03C6  0842               	movf	_i,w
  2949  03C7  00C7               	movwf	??i1_uartget
  2950  03C8  3001               	movlw	1
  2951  03C9                     u113_25:	
  2952  03C9  35C7               	lslf	??i1_uartget,f
  2953  03CA  3EFF               	addlw	-1
  2954  03CB  1D03               	skipz
  2955  03CC  2BC9               	goto	u113_25
  2956  03CD  3547               	lslf	??i1_uartget,w
  2957  03CE  0743               	addwf	_j,w
  2958  03CF  3EFE               	addlw	254
  2959  03D0  00C8               	movwf	??i1_uartget+1
  2960  03D1  0848               	movf	??i1_uartget+1,w
  2961  03D2  00C5               	movwf	_n
  2962                           
  2963                           ;ver0.0_20140727.c: 157: getKeeping[i][j]=getdata[n];
  2964  03D3  0845               	movf	_n,w
  2965  03D4  3EA0               	addlw	_getdata& (0+255)
  2966  03D5  0086               	movwf	6
  2967  03D6  0187               	clrf	7
  2968  03D7  0801               	movf	1,w
  2969  03D8  00C7               	movwf	??i1_uartget
  2970  03D9  0842               	movf	_i,w
  2971  03DA  00C8               	movwf	??i1_uartget+1
  2972  03DB  3001               	movlw	1
  2973  03DC                     u114_25:	
  2974  03DC  35C8               	lslf	??i1_uartget+1,f
  2975  03DD  0B89               	decfsz	9,f
  2976  03DE  2BDC               	goto	u114_25
  2977  03DF  3020               	movlw	_getKeeping& (0+255)
  2978  03E0  0748               	addwf	??i1_uartget+1,w
  2979  03E1  00C9               	movwf	??i1_uartget+2
  2980  03E2  0843               	movf	_j,w
  2981  03E3  0749               	addwf	??i1_uartget+2,w
  2982  03E4  00CA               	movwf	??i1_uartget+3
  2983  03E5  084A               	movf	??i1_uartget+3,w
  2984  03E6  0086               	movwf	6
  2985  03E7  0187               	clrf	7
  2986  03E8  0847               	movf	??i1_uartget,w
  2987  03E9  0081               	movwf	1
  2988  03EA  3001               	movlw	1
  2989  03EB  00C7               	movwf	??i1_uartget
  2990  03EC  0847               	movf	??i1_uartget,w
  2991  03ED  07C3               	addwf	_j,f
  2992  03EE  3002               	movlw	2
  2993  03EF  0243               	subwf	_j,w
  2994  03F0  1C03               	skipc
  2995  03F1  2BC6               	goto	i1l1613
  2996  03F2                     i1l1621:	
  2997  03F2  3001               	movlw	1
  2998  03F3  00C7               	movwf	??i1_uartget
  2999  03F4  0847               	movf	??i1_uartget,w
  3000  03F5  07C2               	addwf	_i,f
  3001  03F6  3011               	movlw	17
  3002  03F7  0242               	subwf	_i,w
  3003  03F8  1C03               	skipc
  3004  03F9  2BC1               	goto	i1l1607
  3005  03FA                     i1l238:	
  3006                           
  3007                           ;ver0.0_20140727.c: 158: }
  3008                           ;ver0.0_20140727.c: 159: }
  3009                           ;ver0.0_20140727.c: 160: for(i=1;i<17;i++){
  3010  03FA  01C2               	clrf	_i
  3011  03FB  0AC2               	incf	_i,f
  3012  03FC  3011               	movlw	17
  3013  03FD  0242               	subwf	_i,w
  3014  03FE  1803               	btfsc	3,0
  3015  03FF  2C8E               	goto	i1l1635
  3016  0400                     i1l1629:	
  3017                           
  3018                           ;ver0.0_20140727.c: 162: putdata[i][0]=(getKeeping[i][1]&0b00011111)<<1;
  3019  0400  1403               	setc
  3020  0401  0D42               	rlf	_i,w
  3021  0402  3E20               	addlw	_getKeeping& (0+255)
  3022  0403  0086               	movwf	6
  3023  0404  0187               	clrf	7
  3024  0405  0801               	movf	1,w
  3025  0406  391F               	andlw	31
  3026  0407  0709               	addwf	9,w
  3027  0408  00C7               	movwf	??i1_uartget
  3028  0409  0842               	movf	_i,w
  3029  040A  00C8               	movwf	??i1_uartget+1
  3030  040B  01C9               	clrf	??i1_uartget+2
  3031  040C  0848               	movf	??i1_uartget+1,w
  3032  040D  00F0               	movwf	i1___wmul@multiplier
  3033  040E  0849               	movf	??i1_uartget+2,w
  3034  040F  00F1               	movwf	i1___wmul@multiplier+1
  3035  0410  3005               	movlw	5
  3036  0411  00F2               	movwf	i1___wmul@multiplicand
  3037  0412  3000               	movlw	0
  3038  0413  00F3               	movwf	i1___wmul@multiplicand+1
  3039  0414  3186  263D  3182   	fcall	i1___wmul
  3040  0417  3096               	movlw	150
  3041  0418  0020               	movlb	0	; select bank0
  3042  0419  00CA               	movwf	??i1_uartget+3
  3043  041A  3023               	movlw	35
  3044  041B  00CB               	movwf	??i1_uartget+4
  3045  041C  0870               	movf	?i1___wmul,w
  3046  041D  074A               	addwf	??i1_uartget+3,w
  3047  041E  00CC               	movwf	??i1_uartget+5
  3048  041F  0871               	movf	?i1___wmul+1,w
  3049  0420  3D4B               	addwfc	??i1_uartget+4,w
  3050  0421  00CD               	movwf	??i1_uartget+6
  3051  0422  084C               	movf	??i1_uartget+5,w
  3052  0423  0086               	movwf	6
  3053  0424  084D               	movf	??i1_uartget+6,w
  3054  0425  0087               	movwf	7
  3055  0426  0847               	movf	??i1_uartget,w
  3056  0427  0081               	movwf	1
  3057                           
  3058                           ;ver0.0_20140727.c: 164: putdata[i][1]=getKeeping[i][0];
  3059  0428  3542               	lslf	_i,w
  3060  0429  3E20               	addlw	_getKeeping& (0+255)
  3061  042A  0086               	movwf	6
  3062  042B  0187               	clrf	7
  3063  042C  0801               	movf	1,w
  3064  042D  00C7               	movwf	??i1_uartget
  3065  042E  0842               	movf	_i,w
  3066  042F  00C8               	movwf	??i1_uartget+1
  3067  0430  01C9               	clrf	??i1_uartget+2
  3068  0431  0848               	movf	??i1_uartget+1,w
  3069  0432  00F0               	movwf	i1___wmul@multiplier
  3070  0433  0849               	movf	??i1_uartget+2,w
  3071  0434  00F1               	movwf	i1___wmul@multiplier+1
  3072  0435  3005               	movlw	5
  3073  0436  00F2               	movwf	i1___wmul@multiplicand
  3074  0437  3000               	movlw	0
  3075  0438  00F3               	movwf	i1___wmul@multiplicand+1
  3076  0439  3186  263D  3182   	fcall	i1___wmul
  3077  043C  0870               	movf	?i1___wmul,w
  3078  043D  3E01               	addlw	1
  3079  043E  0020               	movlb	0	; select bank0
  3080  043F  00CA               	movwf	??i1_uartget+3
  3081  0440  3000               	movlw	0
  3082  0441  3D71               	addwfc	?i1___wmul+1,w
  3083  0442  00CB               	movwf	??i1_uartget+4
  3084  0443  3096               	movlw	150
  3085  0444  00CC               	movwf	??i1_uartget+5
  3086  0445  3023               	movlw	35
  3087  0446  00CD               	movwf	??i1_uartget+6
  3088  0447  084A               	movf	??i1_uartget+3,w
  3089  0448  074C               	addwf	??i1_uartget+5,w
  3090  0449  00CE               	movwf	??i1_uartget+7
  3091  044A  084B               	movf	??i1_uartget+4,w
  3092  044B  3D4D               	addwfc	??i1_uartget+6,w
  3093  044C  00CF               	movwf	??i1_uartget+8
  3094  044D  084E               	movf	??i1_uartget+7,w
  3095  044E  0086               	movwf	6
  3096  044F  084F               	movf	??i1_uartget+8,w
  3097  0450  0087               	movwf	7
  3098  0451  0847               	movf	??i1_uartget,w
  3099  0452  0081               	movwf	1
  3100                           
  3101                           ;ver0.0_20140727.c: 166: putdata[i][4]=(getKeeping[i][1]&0b11100000)>>5;
  3102  0453  1403               	setc
  3103  0454  0D42               	rlf	_i,w
  3104  0455  3E20               	addlw	_getKeeping& (0+255)
  3105  0456  0086               	movwf	6
  3106  0457  0187               	clrf	7
  3107  0458  0801               	movf	1,w
  3108  0459  00C7               	movwf	??i1_uartget
  3109  045A  3005               	movlw	5
  3110  045B                     u118_25:	
  3111  045B  36C7               	lsrf	??i1_uartget,f
  3112  045C  0B89               	decfsz	9,f
  3113  045D  2C5B               	goto	u118_25
  3114  045E  0847               	movf	??i1_uartget,w
  3115  045F  3907               	andlw	7
  3116  0460  00C8               	movwf	??i1_uartget+1
  3117  0461  0842               	movf	_i,w
  3118  0462  00C9               	movwf	??i1_uartget+2
  3119  0463  01CA               	clrf	??i1_uartget+3
  3120  0464  0849               	movf	??i1_uartget+2,w
  3121  0465  00F0               	movwf	i1___wmul@multiplier
  3122  0466  084A               	movf	??i1_uartget+3,w
  3123  0467  00F1               	movwf	i1___wmul@multiplier+1
  3124  0468  3005               	movlw	5
  3125  0469  00F2               	movwf	i1___wmul@multiplicand
  3126  046A  3000               	movlw	0
  3127  046B  00F3               	movwf	i1___wmul@multiplicand+1
  3128  046C  3186  263D  3182   	fcall	i1___wmul
  3129  046F  0870               	movf	?i1___wmul,w
  3130  0470  3E04               	addlw	4
  3131  0471  0020               	movlb	0	; select bank0
  3132  0472  00CB               	movwf	??i1_uartget+4
  3133  0473  3000               	movlw	0
  3134  0474  3D71               	addwfc	?i1___wmul+1,w
  3135  0475  00CC               	movwf	??i1_uartget+5
  3136  0476  3096               	movlw	150
  3137  0477  00CD               	movwf	??i1_uartget+6
  3138  0478  3023               	movlw	35
  3139  0479  00CE               	movwf	??i1_uartget+7
  3140  047A  084B               	movf	??i1_uartget+4,w
  3141  047B  074D               	addwf	??i1_uartget+6,w
  3142  047C  00CF               	movwf	??i1_uartget+8
  3143  047D  084C               	movf	??i1_uartget+5,w
  3144  047E  3D4E               	addwfc	??i1_uartget+7,w
  3145  047F  00D0               	movwf	??i1_uartget+9
  3146  0480  084F               	movf	??i1_uartget+8,w
  3147  0481  0086               	movwf	6
  3148  0482  0850               	movf	??i1_uartget+9,w
  3149  0483  0087               	movwf	7
  3150  0484  0848               	movf	??i1_uartget+1,w
  3151  0485  0081               	movwf	1
  3152  0486  3001               	movlw	1
  3153  0487  00C7               	movwf	??i1_uartget
  3154  0488  0847               	movf	??i1_uartget,w
  3155  0489  07C2               	addwf	_i,f
  3156  048A  3011               	movlw	17
  3157  048B  0242               	subwf	_i,w
  3158  048C  1C03               	skipc
  3159  048D  2C00               	goto	i1l1629
  3160  048E                     i1l1635:	
  3161                           
  3162                           ;ver0.0_20140727.c: 167: }
  3163                           ;ver0.0_20140727.c: 168: putdata[2][0]=putdata[2][0]|0x80;
  3164  048E  3096               	movlw	150
  3165  048F  0086               	movwf	6
  3166  0490  3023               	movlw	35
  3167  0491  0087               	movwf	7
  3168  0492  314A               	addfsr 1,10
  3169  0493  0801               	movf	1,w
  3170  0494  3880               	iorlw	128
  3171  0495  00C7               	movwf	??i1_uartget
  3172  0496  30A0               	movlw	160
  3173  0497  0086               	movwf	6
  3174  0498  3023               	movlw	35
  3175  0499  0087               	movwf	7
  3176  049A  0847               	movf	??i1_uartget,w
  3177  049B  0081               	movwf	1
  3178                           
  3179                           ;ver0.0_20140727.c: 169: putdata[4][0]=putdata[4][0]|0x40;
  3180  049C  3096               	movlw	150
  3181  049D  0086               	movwf	6
  3182  049E  3023               	movlw	35
  3183  049F  0087               	movwf	7
  3184  04A0  3154               	addfsr 1,20
  3185  04A1  0801               	movf	1,w
  3186  04A2  3840               	iorlw	64
  3187  04A3  00C7               	movwf	??i1_uartget
  3188  04A4  30AA               	movlw	170
  3189  04A5  0086               	movwf	6
  3190  04A6  3023               	movlw	35
  3191  04A7  0087               	movwf	7
  3192  04A8  0847               	movf	??i1_uartget,w
  3193  04A9  0081               	movwf	1
  3194                           
  3195                           ;ver0.0_20140727.c: 170: putdata[6][2]=putdata[6][2]|0x01;
  3196  04AA  30B6               	movlw	182
  3197  04AB  0086               	movwf	6
  3198  04AC  3023               	movlw	35
  3199  04AD  0087               	movwf	7
  3200  04AE  0801               	movf	1,w
  3201  04AF  3801               	iorlw	1
  3202  04B0  00C7               	movwf	??i1_uartget
  3203  04B1  30B6               	movlw	182
  3204  04B2  0086               	movwf	6
  3205  04B3  3023               	movlw	35
  3206  04B4  0087               	movwf	7
  3207  04B5  0847               	movf	??i1_uartget,w
  3208  04B6  0081               	movwf	1
  3209                           
  3210                           ;ver0.0_20140727.c: 171: putdata[8][2]=putdata[8][2]|0x02;
  3211  04B7  30C0               	movlw	192
  3212  04B8  0086               	movwf	6
  3213  04B9  3023               	movlw	35
  3214  04BA  0087               	movwf	7
  3215  04BB  0801               	movf	1,w
  3216  04BC  3802               	iorlw	2
  3217  04BD  00C7               	movwf	??i1_uartget
  3218  04BE  30C0               	movlw	192
  3219  04BF  0086               	movwf	6
  3220  04C0  3023               	movlw	35
  3221  04C1  0087               	movwf	7
  3222  04C2  0847               	movf	??i1_uartget,w
  3223  04C3  0081               	movwf	1
  3224                           
  3225                           ;ver0.0_20140727.c: 172: putdata[10][2]=putdata[10][2]|0x04;
  3226  04C4  30CA               	movlw	202
  3227  04C5  0086               	movwf	6
  3228  04C6  3023               	movlw	35
  3229  04C7  0087               	movwf	7
  3230  04C8  0801               	movf	1,w
  3231  04C9  3804               	iorlw	4
  3232  04CA  00C7               	movwf	??i1_uartget
  3233  04CB  30CA               	movlw	202
  3234  04CC  0086               	movwf	6
  3235  04CD  3023               	movlw	35
  3236  04CE  0087               	movwf	7
  3237  04CF  0847               	movf	??i1_uartget,w
  3238  04D0  0081               	movwf	1
  3239                           
  3240                           ;ver0.0_20140727.c: 173: putdata[12][2]=putdata[12][2]|0x08;
  3241  04D1  30D4               	movlw	212
  3242  04D2  0086               	movwf	6
  3243  04D3  3023               	movlw	35
  3244  04D4  0087               	movwf	7
  3245  04D5  0801               	movf	1,w
  3246  04D6  3808               	iorlw	8
  3247  04D7  00C7               	movwf	??i1_uartget
  3248  04D8  30D4               	movlw	212
  3249  04D9  0086               	movwf	6
  3250  04DA  3023               	movlw	35
  3251  04DB  0087               	movwf	7
  3252  04DC  0847               	movf	??i1_uartget,w
  3253  04DD  0081               	movwf	1
  3254                           
  3255                           ;ver0.0_20140727.c: 174: putdata[14][3]=putdata[14][3]|0x01;
  3256  04DE  30DF               	movlw	223
  3257  04DF  0086               	movwf	6
  3258  04E0  3023               	movlw	35
  3259  04E1  0087               	movwf	7
  3260  04E2  0801               	movf	1,w
  3261  04E3  3801               	iorlw	1
  3262  04E4  00C7               	movwf	??i1_uartget
  3263  04E5  30DF               	movlw	223
  3264  04E6  0086               	movwf	6
  3265  04E7  3023               	movlw	35
  3266  04E8  0087               	movwf	7
  3267  04E9  0847               	movf	??i1_uartget,w
  3268  04EA  0081               	movwf	1
  3269                           
  3270                           ;ver0.0_20140727.c: 175: putdata[16][3]=putdata[16][3]|0x02;
  3271  04EB  30E9               	movlw	233
  3272  04EC  0086               	movwf	6
  3273  04ED  3023               	movlw	35
  3274  04EE  0087               	movwf	7
  3275  04EF  0801               	movf	1,w
  3276  04F0  3802               	iorlw	2
  3277  04F1  00C7               	movwf	??i1_uartget
  3278  04F2  30E9               	movlw	233
  3279  04F3  0086               	movwf	6
  3280  04F4  3023               	movlw	35
  3281  04F5  0087               	movwf	7
  3282  04F6  0847               	movf	??i1_uartget,w
  3283  04F7  0081               	movwf	1
  3284  04F8  0008               	return
  3285  04F9                     __end_ofi1_uartget:	
  3286                           
  3287                           	psect	text8
  3288  063D                     __ptext8:	
  3289 ;; *************** function i1___wmul *****************
  3290 ;; Defined at:
  3291 ;;		line 15 in file "/Applications/microchip/xc8/v1.32/sources/common/Umul16.c"
  3292 ;; Parameters:    Size  Location     Type
  3293 ;;  multiplier      2    0[COMMON] unsigned int 
  3294 ;;  multiplicand    2    2[COMMON] unsigned int 
  3295 ;; Auto vars:     Size  Location     Type
  3296 ;;  __wmul          2    4[COMMON] unsigned int 
  3297 ;; Return value:  Size  Location     Type
  3298 ;;                  2    0[COMMON] unsigned int 
  3299 ;; Registers used:
  3300 ;;		wreg, status,2, status,0
  3301 ;; Tracked objects:
  3302 ;;		On entry : 0/0
  3303 ;;		On exit  : 0/0
  3304 ;;		Unchanged: 0/0
  3305 ;; Data sizes:     COMMON   BANK0   BANK1   BANK2   BANK3   BANK4   BANK5   BANK6   BANK7   BANK8   BANK9  BANK10  BANK1
      +1  BANK12
  3306 ;;      Params:         4       0       0       0       0       0       0       0       0       0       0       0       
      +0       0
  3307 ;;      Locals:         2       0       0       0       0       0       0       0       0       0       0       0       
      +0       0
  3308 ;;      Temps:          0       0       0       0       0       0       0       0       0       0       0       0       
      +0       0
  3309 ;;      Totals:         6       0       0       0       0       0       0       0       0       0       0       0       
      +0       0
  3310 ;;Total ram usage:        6 bytes
  3311 ;; Hardware stack levels used:    1
  3312 ;; This function calls:
  3313 ;;		Nothing
  3314 ;; This function is called by:
  3315 ;;		i1_uartget
  3316 ;; This function uses a non-reentrant model
  3317 ;;
  3318                           
  3319                           
  3320                           ;psect for function i1___wmul
  3321  063D                     i1___wmul:	
  3322                           
  3323                           ;incstack = 0
  3324                           ; Regs used in i1___wmul: [wreg+status,2+status,0]
  3325  063D  01F4               	clrf	i1___wmul@product
  3326  063E  01F5               	clrf	i1___wmul@product+1
  3327  063F                     i1l1395:	
  3328  063F  1C70               	btfss	i1___wmul@multiplier,0
  3329  0640  2E45               	goto	i1l394
  3330  0641  0872               	movf	i1___wmul@multiplicand,w
  3331  0642  07F4               	addwf	i1___wmul@product,f
  3332  0643  0873               	movf	i1___wmul@multiplicand+1,w
  3333  0644  3DF5               	addwfc	i1___wmul@product+1,f
  3334  0645                     i1l394:	
  3335  0645  3001               	movlw	1
  3336  0646                     u95_25:	
  3337  0646  35F2               	lslf	i1___wmul@multiplicand,f
  3338  0647  0DF3               	rlf	i1___wmul@multiplicand+1,f
  3339  0648  0B89               	decfsz	9,f
  3340  0649  2E46               	goto	u95_25
  3341  064A  3001               	movlw	1
  3342  064B                     u96_25:	
  3343  064B  36F1               	lsrf	i1___wmul@multiplier+1,f
  3344  064C  0CF0               	rrf	i1___wmul@multiplier,f
  3345  064D  0B89               	decfsz	9,f
  3346  064E  2E4B               	goto	u96_25
  3347  064F  0871               	movf	i1___wmul@multiplier+1,w
  3348  0650  0470               	iorwf	i1___wmul@multiplier,w
  3349  0651  1D03               	skipz
  3350  0652  2E3F               	goto	i1l1395
  3351  0653  0875               	movf	i1___wmul@product+1,w
  3352  0654  01F1               	clrf	?i1___wmul+1
  3353  0655  07F1               	addwf	?i1___wmul+1,f
  3354  0656  0874               	movf	i1___wmul@product,w
  3355  0657  01F0               	clrf	?i1___wmul
  3356  0658  07F0               	addwf	?i1___wmul,f
  3357  0659  0008               	return
  3358  065A                     __end_ofi1___wmul:	
  3359  007E                     btemp	set	126	;btemp
  3360  007E                     pic14e$flags	set	126
  3361  007E                     wtemp	set	126
  3362  007E                     wtemp0	set	126
  3363  0080                     wtemp1	set	128
  3364  0082                     wtemp2	set	130
  3365  0084                     wtemp3	set	132
  3366  0086                     wtemp4	set	134
  3367  0088                     wtemp5	set	136
  3368  007F                     wtemp6	set	127
  3369  007E                     ttemp	set	126
  3370  007E                     ttemp0	set	126
  3371  0081                     ttemp1	set	129
  3372  0084                     ttemp2	set	132
  3373  0087                     ttemp3	set	135
  3374  007F                     ttemp4	set	127
  3375  007E                     ltemp	set	126
  3376  007E                     ltemp0	set	126
  3377  0082                     ltemp1	set	130
  3378  0086                     ltemp2	set	134
  3379  0080                     ltemp3	set	128


Data Sizes:
    Strings     0
    Constant    0
    Data        0
    BSS         242
    Persistent  1
    Stack       0

Auto Spaces:
    Space          Size  Autos    Used
    COMMON           14      7      12
    BANK0            80     28      68
    BANK1            80      0      70
    BANK2            80      0      80
    BANK3            80      0      48
    BANK4            80      0       0
    BANK5            80      0       0
    BANK6            80      0       0
    BANK7            80      0       0
    BANK8            80      0       0
    BANK9            80      0       0
    BANK10           80      0       0
    BANK11           38      0       0
    BANK12            0      0       0

Pointer List with Targets:

    None.

Critical Paths under _main in COMMON

    None.

Critical Paths under _InterTimer in COMMON

    i1_uartget->i1___wmul

Critical Paths under _main in BANK0

    _main->_uartget
    _uartget->___wmul
    _change->___wmul

Critical Paths under _InterTimer in BANK0

    _InterTimer->i1_uartget

Critical Paths under _main in BANK1

    None.

Critical Paths under _InterTimer in BANK1

    None.

Critical Paths under _main in BANK2

    None.

Critical Paths under _InterTimer in BANK2

    None.

Critical Paths under _main in BANK3

    None.

Critical Paths under _InterTimer in BANK3

    None.

Critical Paths under _main in BANK4

    None.

Critical Paths under _InterTimer in BANK4

    None.

Critical Paths under _main in BANK5

    None.

Critical Paths under _InterTimer in BANK5

    None.

Critical Paths under _main in BANK6

    None.

Critical Paths under _InterTimer in BANK6

    None.

Critical Paths under _main in BANK7

    None.

Critical Paths under _InterTimer in BANK7

    None.

Critical Paths under _main in BANK8

    None.

Critical Paths under _InterTimer in BANK8

    None.

Critical Paths under _main in BANK9

    None.

Critical Paths under _InterTimer in BANK9

    None.

Critical Paths under _main in BANK10

    None.

Critical Paths under _InterTimer in BANK10

    None.

Critical Paths under _main in BANK11

    None.

Critical Paths under _InterTimer in BANK11

    None.

Critical Paths under _main in BANK12

    None.

Critical Paths under _InterTimer in BANK12

    None.

Call Graph Tables:

 ---------------------------------------------------------------------------------
 (Depth) Function   	        Calls       Base Space   Used Autos Params    Refs
 ---------------------------------------------------------------------------------
 (0) _main                                                 2     2      0    2380
                                             26 BANK0      2     2      0
                         _E2promRead
                             _change
                             _setpin
                            _uartget
 ---------------------------------------------------------------------------------
 (1) _uartget                                             10    10      0    1176
                                             16 BANK0     10    10      0
                             ___wmul
 ---------------------------------------------------------------------------------
 (1) _setpin                                               0     0      0       0
 ---------------------------------------------------------------------------------
 (1) _change                                               6     6      0    1176
                                             16 BANK0      6     6      0
                             ___wmul
 ---------------------------------------------------------------------------------
 (2) ___wmul                                               6     2      4    1176
                                             10 BANK0      6     2      4
 ---------------------------------------------------------------------------------
 (1) _E2promRead                                           3     3      0      22
                                             10 BANK0      3     3      0
 ---------------------------------------------------------------------------------
 Estimated maximum stack depth 2
 ---------------------------------------------------------------------------------
 (Depth) Function   	        Calls       Base Space   Used Autos Params    Refs
 ---------------------------------------------------------------------------------
 (3) _InterTimer                                           1     1      0     248
                                              6 COMMON     1     1      0
                          i1_uartget
 ---------------------------------------------------------------------------------
 (4) i1_uartget                                           10    10      0     248
                                              0 BANK0     10    10      0
                           i1___wmul
 ---------------------------------------------------------------------------------
 (5) i1___wmul                                             6     2      4     248
                                              0 COMMON     6     2      4
 ---------------------------------------------------------------------------------
 Estimated maximum stack depth 5
 ---------------------------------------------------------------------------------

 Call Graph Graphs:

 _main (ROOT)
   _E2promRead
   _change
     ___wmul
   _setpin
   _uartget
     ___wmul

 _InterTimer (ROOT)
   i1_uartget
     i1___wmul

 Address spaces:
Name               Size   Autos  Total    Cost      Usage
BIGRAM             3F0      0       0       0        0.0%
EEDATA             100      0       0       0        0.0%
NULL                 0      0       0       0        0.0%
CODE                 0      0       0       0        0.0%
BITCOMMON            E      0       0       1        0.0%
BITSFR0              0      0       0       1        0.0%
SFR0                 0      0       0       1        0.0%
COMMON               E      7       C       2       85.7%
BITSFR1              0      0       0       2        0.0%
SFR1                 0      0       0       2        0.0%
BITSFR2              0      0       0       3        0.0%
SFR2                 0      0       0       3        0.0%
STACK                0      0       0       3        0.0%
BITBANK0            50      0       0       4        0.0%
BITSFR3              0      0       0       4        0.0%
SFR3                 0      0       0       4        0.0%
BANK0               50     1C      44       5       85.0%
BITSFR4              0      0       0       5        0.0%
SFR4                 0      0       0       5        0.0%
BITBANK1            50      0       0       6        0.0%
BITSFR5              0      0       0       6        0.0%
SFR5                 0      0       0       6        0.0%
BANK1               50      0      46       7       87.5%
BITSFR6              0      0       0       7        0.0%
SFR6                 0      0       0       7        0.0%
BITBANK2            50      0       0       8        0.0%
BITSFR7              0      0       0       8        0.0%
SFR7                 0      0       0       8        0.0%
BANK2               50      0      50       9      100.0%
BITSFR8              0      0       0       9        0.0%
SFR8                 0      0       0       9        0.0%
BITBANK3            50      0       0      10        0.0%
BITSFR9              0      0       0      10        0.0%
SFR9                 0      0       0      10        0.0%
BANK3               50      0      30      11       60.0%
BITSFR10             0      0       0      11        0.0%
SFR10                0      0       0      11        0.0%
BITBANK4            50      0       0      12        0.0%
BITSFR11             0      0       0      12        0.0%
SFR11                0      0       0      12        0.0%
BANK4               50      0       0      13        0.0%
BITSFR12             0      0       0      13        0.0%
SFR12                0      0       0      13        0.0%
BITBANK5            50      0       0      14        0.0%
BITSFR13             0      0       0      14        0.0%
SFR13                0      0       0      14        0.0%
BANK5               50      0       0      15        0.0%
BITSFR14             0      0       0      15        0.0%
SFR14                0      0       0      15        0.0%
BITBANK6            50      0       0      16        0.0%
BITSFR15             0      0       0      16        0.0%
SFR15                0      0       0      16        0.0%
BANK6               50      0       0      17        0.0%
BITSFR16             0      0       0      17        0.0%
SFR16                0      0       0      17        0.0%
BITBANK7            50      0       0      18        0.0%
BITSFR17             0      0       0      18        0.0%
SFR17                0      0       0      18        0.0%
BANK7               50      0       0      19        0.0%
BITSFR18             0      0       0      19        0.0%
SFR18                0      0       0      19        0.0%
BITSFR19             0      0       0      20        0.0%
SFR19                0      0       0      20        0.0%
ABS                  0      0     116      20        0.0%
BITBANK8            50      0       0      21        0.0%
BITSFR20             0      0       0      21        0.0%
SFR20                0      0       0      21        0.0%
BANK8               50      0       0      22        0.0%
BITSFR21             0      0       0      22        0.0%
SFR21                0      0       0      22        0.0%
BITBANK9            50      0       0      23        0.0%
BITSFR22             0      0       0      23        0.0%
SFR22                0      0       0      23        0.0%
BANK9               50      0       0      24        0.0%
BITSFR23             0      0       0      24        0.0%
SFR23                0      0       0      24        0.0%
BITBANK10           50      0       0      25        0.0%
BITSFR24             0      0       0      25        0.0%
SFR24                0      0       0      25        0.0%
BANK10              50      0       0      26        0.0%
BITSFR25             0      0       0      26        0.0%
SFR25                0      0       0      26        0.0%
BITBANK11           50      0       0      27        0.0%
BITSFR26             0      0       0      27        0.0%
SFR26                0      0       0      27        0.0%
BANK11              26      0       0      28        0.0%
BITSFR27             0      0       0      28        0.0%
SFR27                0      0       0      28        0.0%
BITBANK12           30      0       0      29        0.0%
BITSFR28             0      0       0      29        0.0%
SFR28                0      0       0      29        0.0%
BITSFR29             0      0       0      30        0.0%
SFR29                0      0       0      30        0.0%
BANK12               0      0       0      30        0.0%
BITSFR30             0      0       0      31        0.0%
SFR30                0      0       0      31        0.0%
DATA                 0      0     116      31        0.0%
BITSFR31             0      0       0      32        0.0%
SFR31                0      0       0      32        0.0%


Microchip Technology PIC Macro Assembler V1.32 build 58300 
Symbol Table                                                                                   Sun Sep 28 14:53:09 2014

            ?_E2promRead 0070                        _i 0042                        _j 0043  
                      _n 0045                        pc 0002              __CFG_CP$OFF 0000  
                     _RD 0CA8      ___wmul@multiplicand 0053         i1___wmul@product 0074  
            __CFG_LVP$ON 0000                      l238 01AB                      l262 05D6  
                    l271 05E3                      l280 05F2                      l281 05F4  
                    l265 05DC                      l282 05F6                      l283 05F8  
                    l284 05FA                      l276 05EC                      l285 060A  
                    l278 05EE                      l279 05F0                      l394 0628  
                    _GIE 005F                      _RA0 0060                      _RA1 0061  
                    _RA2 0062                      _RA3 0063                      _RC0 0070  
                    _RA4 0064                      _RC1 0071                      _RA5 0065  
                    _RD0 0078                      _RC2 0072                      _RA6 0066  
                    _RD1 0079                      _RC3 0073                      _RA7 0067  
                    _RD4 007C                      _RD5 007D                      _RD6 007E  
           __CFG_CPD$OFF 0000                      _led 0120             __CFG_BORV$LO 0000  
                    wreg 0009             __CFG_IESO$ON 0000                     S2223 0672  
                   l2001 0504                     l2071 0172                     l2093 01B1  
                   l2085 01A3                     l2077 0177                     l2181 05FD  
                   l2099 023F                     l1963 0622                     u1765 0629  
                   u1845 017A                     u1775 062E                     u1855 018D  
                   u1895 020C                     _RCIF 008D                     _TMR0 0015  
                   _TRMT 0CF1                     _WPUB 020D             __CFG_WRT$OFF 0000  
          __CFG_FCMEN$ON 0000                     _main 05A9                     _fulg 0077  
                   _time 0046                     _test 0150                     fsr0h 0005  
                   fsr1h 0007                     fsr0l 0004                     indf0 0000  
                   indf1 0001                     fsr1l 0006                     _stoc 01A0  
                   btemp 007E            __CFG_BOREN$ON 0000                     ltemp 007E  
                   start 001A                     ttemp 007E                     wtemp 007E  
          __CFG_PLLEN$ON 0000                    ?_main 0070                    _EEADR 0191  
          __CFG_WDTE$OFF 0000                    i1l238 03FA                    i1l247 0015  
                  i1l248 0016                    i1l394 0645                    _RCREG 0199  
                  _RCSTA 019D                    _SPBRG 019B                    _PORTA 000C  
                  _PORTB 000D                    _PORTC 000E                    _PORTD 000F  
                  _PORTE 0010                    _TRISA 008C                    _TRISB 008D  
                  _TRISC 008E                    _TRISD 008F                    _TRISE 0090  
                  u95_25 0646                    u96_25 064B                    _TXREG 019A  
                  _TXSTA 019E            __CFG_PWRTE$ON 0000      __size_of_E2promRead 000F  
       __end_ofi1___wmul 065A                    ltemp0 007E                    ltemp1 0082  
                  ltemp2 0086                    ltemp3 0080          __end_of_uartget 02AA  
                  ttemp0 007E                    ttemp1 0081                    ttemp2 0084  
                  ttemp3 0087                    ttemp4 007F      i1___wmul@multiplier 0070  
                  wtemp0 007E                    wtemp1 0080                    wtemp2 0082  
                  wtemp3 0084                    wtemp4 0086                    wtemp5 0088  
                  wtemp6 007F           __CFG_MCLRE$OFF 0000          __initialization 001C  
           __end_of_main 061F       __size_ofi1_uartget 024F                   ??_main 0061  
             _InterTimer 0004                   _EEDATA 0193                   _ANSELA 018C  
                 _ANSELB 018D                   _ANSELD 018F                   _ANSELE 0190  
                 i1l1621 03F2                   i1l1613 03C6                   i1l1607 03C1  
                 i1l1395 063F                   i1l1635 048E                   i1l1629 0400  
                 u113_25 03C9                   u114_25 03DC                   u118_25 045B  
         _gettingSuccess 0063                   _OSCCON 0099                   _TMR0IE 005D  
                 _TMR0IF 005A                   _TRISC6 0476                   _TRISC7 0477  
                 _nWPUEN 04AF                   ___wmul 061F           __CFG_STVREN$ON 0000  
                 _change 04F9                   _getNum 0078                   _setpin 065A  
          E2promRead@adr 0053                ??_uartget 0057  __end_of__initialization 0057  
      __end_ofi1_uartget 04F9           __pcstackCOMMON 0070             ??_E2promRead 0051  
            ?_InterTimer 0070                ?i1___wmul 0070               __pbssBANK0 0020  
             __pbssBANK1 00A0               __pbssBANK2 0120               __pbssBANK3 01A0  
     __end_of_E2promRead 0691          __CFG_VCAPEN$OFF 0000               __pmaintext 05A9  
                ?___wmul 0051                  ?_change 0070               _getKeeping 0020  
             __pintentry 0004                  _BAUDCON 019F                  ?_setpin 0070  
             ??i1___wmul 0074           main@individual 0062      __size_of_InterTimer 0016  
        __size_of___wmul 001E          __size_of_change 00B0                  __ptext1 005B  
                __ptext2 065A                  __ptext3 04F9                  __ptext4 061F  
                __ptext5 0682                  __ptext7 02AA                  __ptext8 063D  
        __size_of_setpin 0018                  _getdata 00A0                  _onetime 0079  
                _uartget 005B                  _putdata 2396                  clrloop0 0692  
   end_of_initialization 0057    i1___wmul@multiplicand 0072         __CFG_FOSC$INTOSC 0000  
              i1_uartget 02AA           __end_of___wmul 063D           __end_of_change 05A9  
           ??_InterTimer 0076           __end_of_setpin 0672      start_initialization 001C  
      __size_ofi1___wmul 001D       __end_of_InterTimer 001A               ?i1_uartget 0070  
               ??___wmul 0055                 ??_change 0057                 ??_setpin 0051  
            __pbssBIGRAM 2396              __pbssCOMMON 0077                ___latbits 0003  
          __pcstackBANK0 0047                __pnvBANK0 0063                __pswtext1 0672  
               ?_uartget 0070           ___wmul@product 0055                clear_ram0 0691  
              _resetFlug 007B              ??i1_uartget 0047        ___wmul@multiplier 0051  
               i1___wmul 063D         __size_of_uartget 024F                 _ledcount 0044  
          __size_of_main 0076               _E2promRead 0682             _reservingNow 007A  
            pic14e$flags 007E                 intlevel1 0000        __CFG_CLKOUTEN$OFF 0000  
             _OPTION_REG 0095  
